
image/EFI/gsai/kernel.elf:     file format elf64-x86-64


Disassembly of section .text:

0000000000202710 <_ZN6kernel10interrupts23timer_interrupt_handler17ha576417739c22effE>:
  202710:	41 53                	push   %r11
  202712:	41 52                	push   %r10
  202714:	41 51                	push   %r9
  202716:	41 50                	push   %r8
  202718:	57                   	push   %rdi
  202719:	56                   	push   %rsi
  20271a:	52                   	push   %rdx
  20271b:	51                   	push   %rcx
  20271c:	53                   	push   %rbx
  20271d:	50                   	push   %rax
  20271e:	50                   	push   %rax
  20271f:	fc                   	cld    
  202720:	bb 01 00 00 00       	mov    $0x1,%ebx
  202725:	f0 48 0f c1 1d 92 53 	lock xadd %rbx,0x5392(%rip)        # 207ac0 <_ZN6kernel3pic4PICS17h1b4f7132a142f9c5E.llvm.17665651154821558992>
  20272c:	00 00 
  20272e:	66 90                	xchg   %ax,%ax
  202730:	48 8b 05 91 53 00 00 	mov    0x5391(%rip),%rax        # 207ac8 <_ZN6kernel3pic4PICS17h1b4f7132a142f9c5E.llvm.17665651154821558992+0x8>
  202737:	48 39 d8             	cmp    %rbx,%rax
  20273a:	75 f4                	jne    202730 <_ZN6kernel10interrupts23timer_interrupt_handler17ha576417739c22effE+0x20>
  20273c:	bf d0 7a 20 00       	mov    $0x207ad0,%edi
  202741:	be 20 00 00 00       	mov    $0x20,%esi
  202746:	e8 a5 1f 00 00       	callq  2046f0 <_ZN14pic8259_simple11ChainedPics23notify_end_of_interrupt17h7c603ddd93e5eb82E>
  20274b:	48 ff c3             	inc    %rbx
  20274e:	48 89 1d 73 53 00 00 	mov    %rbx,0x5373(%rip)        # 207ac8 <_ZN6kernel3pic4PICS17h1b4f7132a142f9c5E.llvm.17665651154821558992+0x8>
  202755:	48 83 c4 08          	add    $0x8,%rsp
  202759:	58                   	pop    %rax
  20275a:	5b                   	pop    %rbx
  20275b:	59                   	pop    %rcx
  20275c:	5a                   	pop    %rdx
  20275d:	5e                   	pop    %rsi
  20275e:	5f                   	pop    %rdi
  20275f:	41 58                	pop    %r8
  202761:	41 59                	pop    %r9
  202763:	41 5a                	pop    %r10
  202765:	41 5b                	pop    %r11
  202767:	48 cf                	iretq  
  202769:	cc                   	int3   
  20276a:	cc                   	int3   
  20276b:	cc                   	int3   
  20276c:	cc                   	int3   
  20276d:	cc                   	int3   
  20276e:	cc                   	int3   
  20276f:	cc                   	int3   

0000000000202770 <_ZN6kernel7drivers6serial9safe_lock17h52e2b83c2945ec3bE>:
  202770:	50                   	push   %rax
  202771:	bf d8 db 20 00       	mov    $0x20dbd8,%edi
  202776:	e8 55 00 00 00       	callq  2027d0 <_ZN4spin4once13Once$LT$T$GT$9call_once17h1a8fc6539b83e0e5E>
  20277b:	48 89 c1             	mov    %rax,%rcx
  20277e:	be 01 00 00 00       	mov    $0x1,%esi
  202783:	f0 48 0f c1 30       	lock xadd %rsi,(%rax)
  202788:	0f 1f 84 00 00 00 00 	nopl   0x0(%rax,%rax,1)
  20278f:	00 
  202790:	48 8b 41 08          	mov    0x8(%rcx),%rax
  202794:	48 39 f0             	cmp    %rsi,%rax
  202797:	75 f7                	jne    202790 <_ZN6kernel7drivers6serial9safe_lock17h52e2b83c2945ec3bE+0x20>
  202799:	0f b7 51 10          	movzwl 0x10(%rcx),%edx
  20279d:	b0 48                	mov    $0x48,%al
  20279f:	ee                   	out    %al,(%dx)
  2027a0:	b0 45                	mov    $0x45,%al
  2027a2:	ee                   	out    %al,(%dx)
  2027a3:	b0 4c                	mov    $0x4c,%al
  2027a5:	ee                   	out    %al,(%dx)
  2027a6:	b0 4c                	mov    $0x4c,%al
  2027a8:	ee                   	out    %al,(%dx)
  2027a9:	b0 4f                	mov    $0x4f,%al
  2027ab:	ee                   	out    %al,(%dx)
  2027ac:	48 ff c6             	inc    %rsi
  2027af:	48 89 71 08          	mov    %rsi,0x8(%rcx)
  2027b3:	58                   	pop    %rax
  2027b4:	c3                   	retq   
  2027b5:	cc                   	int3   
  2027b6:	cc                   	int3   
  2027b7:	cc                   	int3   
  2027b8:	cc                   	int3   
  2027b9:	cc                   	int3   
  2027ba:	cc                   	int3   
  2027bb:	cc                   	int3   
  2027bc:	cc                   	int3   
  2027bd:	cc                   	int3   
  2027be:	cc                   	int3   
  2027bf:	cc                   	int3   

00000000002027c0 <_ZN4core3ptr13drop_in_place17h46565a5912885f68E>:
  2027c0:	c3                   	retq   
  2027c1:	cc                   	int3   
  2027c2:	cc                   	int3   
  2027c3:	cc                   	int3   
  2027c4:	cc                   	int3   
  2027c5:	cc                   	int3   
  2027c6:	cc                   	int3   
  2027c7:	cc                   	int3   
  2027c8:	cc                   	int3   
  2027c9:	cc                   	int3   
  2027ca:	cc                   	int3   
  2027cb:	cc                   	int3   
  2027cc:	cc                   	int3   
  2027cd:	cc                   	int3   
  2027ce:	cc                   	int3   
  2027cf:	cc                   	int3   

00000000002027d0 <_ZN4spin4once13Once$LT$T$GT$9call_once17h1a8fc6539b83e0e5E>:
  2027d0:	53                   	push   %rbx
  2027d1:	48 83 ec 10          	sub    $0x10,%rsp
  2027d5:	48 89 fb             	mov    %rdi,%rbx
  2027d8:	48 8b 07             	mov    (%rdi),%rax
  2027db:	48 85 c0             	test   %rax,%rax
  2027de:	75 7f                	jne    20285f <_ZN4spin4once13Once$LT$T$GT$9call_once17h1a8fc6539b83e0e5E+0x8f>
  2027e0:	b9 01 00 00 00       	mov    $0x1,%ecx
  2027e5:	31 c0                	xor    %eax,%eax
  2027e7:	f0 48 0f b1 0b       	lock cmpxchg %rcx,(%rbx)
  2027ec:	75 71                	jne    20285f <_ZN4spin4once13Once$LT$T$GT$9call_once17h1a8fc6539b83e0e5E+0x8f>
  2027ee:	48 89 1c 24          	mov    %rbx,(%rsp)
  2027f2:	66 ba fe 03          	mov    $0x3fe,%dx
  2027f6:	b0 80                	mov    $0x80,%al
  2027f8:	ee                   	out    %al,(%dx)
  2027f9:	66 ba fb 03          	mov    $0x3fb,%dx
  2027fd:	31 c0                	xor    %eax,%eax
  2027ff:	ee                   	out    %al,(%dx)
  202800:	66 ba fb 03          	mov    $0x3fb,%dx
  202804:	b0 01                	mov    $0x1,%al
  202806:	ee                   	out    %al,(%dx)
  202807:	66 ba fe 03          	mov    $0x3fe,%dx
  20280b:	b0 03                	mov    $0x3,%al
  20280d:	ee                   	out    %al,(%dx)
  20280e:	66 ba fd 03          	mov    $0x3fd,%dx
  202812:	b0 c7                	mov    $0xc7,%al
  202814:	ee                   	out    %al,(%dx)
  202815:	66 ba ff 03          	mov    $0x3ff,%dx
  202819:	b0 0b                	mov    $0xb,%al
  20281b:	ee                   	out    %al,(%dx)
  20281c:	48 c7 43 08 01 00 00 	movq   $0x1,0x8(%rbx)
  202823:	00 
  202824:	48 c7 43 10 00 00 00 	movq   $0x0,0x10(%rbx)
  20282b:	00 
  20282c:	48 c7 43 18 00 00 00 	movq   $0x0,0x18(%rbx)
  202833:	00 
  202834:	48 b8 fb 03 fd 03 fe 	movabs $0x3ff03fe03fd03fb,%rax
  20283b:	03 ff 03 
  20283e:	48 89 43 20          	mov    %rax,0x20(%rbx)
  202842:	66 c7 43 28 00 04    	movw   $0x400,0x28(%rbx)
  202848:	c6 44 24 08 00       	movb   $0x0,0x8(%rsp)
  20284d:	b8 02 00 00 00       	mov    $0x2,%eax
  202852:	48 87 03             	xchg   %rax,(%rbx)
  202855:	48 89 e7             	mov    %rsp,%rdi
  202858:	e8 63 1d 00 00       	callq  2045c0 <_ZN60_$LT$spin..once..Finish$u20$as$u20$core..ops..drop..Drop$GT$4drop17hb2f36b9470b50a54E>
  20285d:	eb 11                	jmp    202870 <_ZN4spin4once13Once$LT$T$GT$9call_once17h1a8fc6539b83e0e5E+0xa0>
  20285f:	ff 24 c5 90 01 20 00 	jmpq   *0x200190(,%rax,8)
  202866:	48 8b 03             	mov    (%rbx),%rax
  202869:	ff 24 c5 90 01 20 00 	jmpq   *0x200190(,%rax,8)
  202870:	48 83 c3 10          	add    $0x10,%rbx
  202874:	48 89 d8             	mov    %rbx,%rax
  202877:	48 83 c4 10          	add    $0x10,%rsp
  20287b:	5b                   	pop    %rbx
  20287c:	c3                   	retq   
  20287d:	bf b0 02 20 00       	mov    $0x2002b0,%edi
  202882:	be 28 00 00 00       	mov    $0x28,%esi
  202887:	ba d8 02 20 00       	mov    $0x2002d8,%edx
  20288c:	e8 bf 2a 00 00       	callq  205350 <_ZN4core9panicking5panic17h0d5eac47308c2a59E>
  202891:	0f 0b                	ud2    
  202893:	bf 30 02 20 00       	mov    $0x200230,%edi
  202898:	be 11 00 00 00       	mov    $0x11,%esi
  20289d:	ba 98 02 20 00       	mov    $0x200298,%edx
  2028a2:	e8 a9 2a 00 00       	callq  205350 <_ZN4core9panicking5panic17h0d5eac47308c2a59E>
  2028a7:	0f 0b                	ud2    
  2028a9:	cc                   	int3   
  2028aa:	cc                   	int3   
  2028ab:	cc                   	int3   
  2028ac:	cc                   	int3   
  2028ad:	cc                   	int3   
  2028ae:	cc                   	int3   
  2028af:	cc                   	int3   

00000000002028b0 <_ZN4spin4once13Once$LT$T$GT$9call_once17h4c3348b168eb1995E>:
  2028b0:	41 57                	push   %r15
  2028b2:	41 56                	push   %r14
  2028b4:	53                   	push   %rbx
  2028b5:	48 83 ec 30          	sub    $0x30,%rsp
  2028b9:	48 89 fb             	mov    %rdi,%rbx
  2028bc:	48 8b 07             	mov    (%rdi),%rax
  2028bf:	48 85 c0             	test   %rax,%rax
  2028c2:	0f 85 5c 01 00 00    	jne    202a24 <_ZN4spin4once13Once$LT$T$GT$9call_once17h4c3348b168eb1995E+0x174>
  2028c8:	b9 01 00 00 00       	mov    $0x1,%ecx
  2028cd:	31 c0                	xor    %eax,%eax
  2028cf:	f0 48 0f b1 0b       	lock cmpxchg %rcx,(%rbx)
  2028d4:	0f 85 4a 01 00 00    	jne    202a24 <_ZN4spin4once13Once$LT$T$GT$9call_once17h4c3348b168eb1995E+0x174>
  2028da:	48 89 5c 24 20       	mov    %rbx,0x20(%rsp)
  2028df:	bf 00 db 20 00       	mov    $0x20db00,%edi
  2028e4:	e8 a7 16 00 00       	callq  203f90 <_ZN4spin4once13Once$LT$T$GT$9call_once17hfd2579c1b627e40aE>
  2028e9:	48 89 44 24 18       	mov    %rax,0x18(%rsp)
  2028ee:	48 b8 00 00 00 00 00 	movabs $0x800000000000,%rax
  2028f5:	80 00 00 
  2028f8:	48 89 44 24 08       	mov    %rax,0x8(%rsp)
  2028fd:	4c 8d 74 24 18       	lea    0x18(%rsp),%r14
  202902:	ba 18 00 00 00       	mov    $0x18,%edx
  202907:	4c 89 f7             	mov    %r14,%rdi
  20290a:	31 f6                	xor    %esi,%esi
  20290c:	e8 6f 1b 00 00       	callq  204480 <_ZN43_$LT$u64$u20$as$u20$bit_field..BitField$GT$8get_bits17hc8035016be2c1285E>
  202911:	4c 8d 7c 24 08       	lea    0x8(%rsp),%r15
  202916:	be 10 00 00 00       	mov    $0x10,%esi
  20291b:	ba 28 00 00 00       	mov    $0x28,%edx
  202920:	4c 89 ff             	mov    %r15,%rdi
  202923:	48 89 c1             	mov    %rax,%rcx
  202926:	e8 b5 1b 00 00       	callq  2044e0 <_ZN43_$LT$u64$u20$as$u20$bit_field..BitField$GT$8set_bits17hf52b9dee278ae173E>
  20292b:	be 18 00 00 00       	mov    $0x18,%esi
  202930:	ba 20 00 00 00       	mov    $0x20,%edx
  202935:	4c 89 f7             	mov    %r14,%rdi
  202938:	e8 43 1b 00 00       	callq  204480 <_ZN43_$LT$u64$u20$as$u20$bit_field..BitField$GT$8get_bits17hc8035016be2c1285E>
  20293d:	be 38 00 00 00       	mov    $0x38,%esi
  202942:	ba 40 00 00 00       	mov    $0x40,%edx
  202947:	4c 89 ff             	mov    %r15,%rdi
  20294a:	48 89 c1             	mov    %rax,%rcx
  20294d:	e8 8e 1b 00 00       	callq  2044e0 <_ZN43_$LT$u64$u20$as$u20$bit_field..BitField$GT$8set_bits17hf52b9dee278ae173E>
  202952:	ba 10 00 00 00       	mov    $0x10,%edx
  202957:	b9 67 00 00 00       	mov    $0x67,%ecx
  20295c:	4c 89 ff             	mov    %r15,%rdi
  20295f:	31 f6                	xor    %esi,%esi
  202961:	e8 7a 1b 00 00       	callq  2044e0 <_ZN43_$LT$u64$u20$as$u20$bit_field..BitField$GT$8set_bits17hf52b9dee278ae173E>
  202966:	be 28 00 00 00       	mov    $0x28,%esi
  20296b:	ba 2c 00 00 00       	mov    $0x2c,%edx
  202970:	b9 09 00 00 00       	mov    $0x9,%ecx
  202975:	4c 89 ff             	mov    %r15,%rdi
  202978:	e8 63 1b 00 00       	callq  2044e0 <_ZN43_$LT$u64$u20$as$u20$bit_field..BitField$GT$8set_bits17hf52b9dee278ae173E>
  20297d:	48 c7 44 24 10 00 00 	movq   $0x0,0x10(%rsp)
  202984:	00 00 
  202986:	be 20 00 00 00       	mov    $0x20,%esi
  20298b:	ba 40 00 00 00       	mov    $0x40,%edx
  202990:	4c 89 f7             	mov    %r14,%rdi
  202993:	e8 e8 1a 00 00       	callq  204480 <_ZN43_$LT$u64$u20$as$u20$bit_field..BitField$GT$8get_bits17hc8035016be2c1285E>
  202998:	48 8d 7c 24 10       	lea    0x10(%rsp),%rdi
  20299d:	ba 20 00 00 00       	mov    $0x20,%edx
  2029a2:	31 f6                	xor    %esi,%esi
  2029a4:	48 89 c1             	mov    %rax,%rcx
  2029a7:	e8 34 1b 00 00       	callq  2044e0 <_ZN43_$LT$u64$u20$as$u20$bit_field..BitField$GT$8set_bits17hf52b9dee278ae173E>
  2029ac:	48 8b 44 24 08       	mov    0x8(%rsp),%rax
  2029b1:	48 8b 4c 24 10       	mov    0x10(%rsp),%rcx
  2029b6:	48 c7 43 08 01 00 00 	movq   $0x1,0x8(%rbx)
  2029bd:	00 
  2029be:	48 c7 43 10 00 00 00 	movq   $0x0,0x10(%rbx)
  2029c5:	00 
  2029c6:	48 ba ff ff 00 00 00 	movabs $0xaf9b000000ffff,%rdx
  2029cd:	9b af 00 
  2029d0:	48 89 53 18          	mov    %rdx,0x18(%rbx)
  2029d4:	48 89 43 20          	mov    %rax,0x20(%rbx)
  2029d8:	48 89 4b 28          	mov    %rcx,0x28(%rbx)
  2029dc:	48 c7 43 30 00 00 00 	movq   $0x0,0x30(%rbx)
  2029e3:	00 
  2029e4:	48 c7 43 38 00 00 00 	movq   $0x0,0x38(%rbx)
  2029eb:	00 
  2029ec:	48 c7 43 40 00 00 00 	movq   $0x0,0x40(%rbx)
  2029f3:	00 
  2029f4:	48 c7 43 48 00 00 00 	movq   $0x0,0x48(%rbx)
  2029fb:	00 
  2029fc:	48 c7 43 50 04 00 00 	movq   $0x4,0x50(%rbx)
  202a03:	00 
  202a04:	c7 43 58 08 00 10 00 	movl   $0x100008,0x58(%rbx)
  202a0b:	c6 44 24 28 00       	movb   $0x0,0x28(%rsp)
  202a10:	b8 02 00 00 00       	mov    $0x2,%eax
  202a15:	48 87 03             	xchg   %rax,(%rbx)
  202a18:	48 8d 7c 24 20       	lea    0x20(%rsp),%rdi
  202a1d:	e8 9e 1b 00 00       	callq  2045c0 <_ZN60_$LT$spin..once..Finish$u20$as$u20$core..ops..drop..Drop$GT$4drop17hb2f36b9470b50a54E>
  202a22:	eb 11                	jmp    202a35 <_ZN4spin4once13Once$LT$T$GT$9call_once17h4c3348b168eb1995E+0x185>
  202a24:	ff 24 c5 b0 01 20 00 	jmpq   *0x2001b0(,%rax,8)
  202a2b:	48 8b 03             	mov    (%rbx),%rax
  202a2e:	ff 24 c5 b0 01 20 00 	jmpq   *0x2001b0(,%rax,8)
  202a35:	48 83 c3 10          	add    $0x10,%rbx
  202a39:	48 89 d8             	mov    %rbx,%rax
  202a3c:	48 83 c4 30          	add    $0x30,%rsp
  202a40:	5b                   	pop    %rbx
  202a41:	41 5e                	pop    %r14
  202a43:	41 5f                	pop    %r15
  202a45:	c3                   	retq   
  202a46:	bf b0 02 20 00       	mov    $0x2002b0,%edi
  202a4b:	be 28 00 00 00       	mov    $0x28,%esi
  202a50:	ba d8 02 20 00       	mov    $0x2002d8,%edx
  202a55:	e8 f6 28 00 00       	callq  205350 <_ZN4core9panicking5panic17h0d5eac47308c2a59E>
  202a5a:	0f 0b                	ud2    
  202a5c:	bf 30 02 20 00       	mov    $0x200230,%edi
  202a61:	be 11 00 00 00       	mov    $0x11,%esi
  202a66:	ba 98 02 20 00       	mov    $0x200298,%edx
  202a6b:	e8 e0 28 00 00       	callq  205350 <_ZN4core9panicking5panic17h0d5eac47308c2a59E>
  202a70:	0f 0b                	ud2    
  202a72:	cc                   	int3   
  202a73:	cc                   	int3   
  202a74:	cc                   	int3   
  202a75:	cc                   	int3   
  202a76:	cc                   	int3   
  202a77:	cc                   	int3   
  202a78:	cc                   	int3   
  202a79:	cc                   	int3   
  202a7a:	cc                   	int3   
  202a7b:	cc                   	int3   
  202a7c:	cc                   	int3   
  202a7d:	cc                   	int3   
  202a7e:	cc                   	int3   
  202a7f:	cc                   	int3   

0000000000202a80 <_ZN4spin4once13Once$LT$T$GT$9call_once17h83dd8a5f5f560670E>:
  202a80:	41 56                	push   %r14
  202a82:	53                   	push   %rbx
  202a83:	48 81 ec 18 20 00 00 	sub    $0x2018,%rsp
  202a8a:	48 89 fb             	mov    %rdi,%rbx
  202a8d:	48 8d 8f 10 10 00 00 	lea    0x1010(%rdi),%rcx
  202a94:	48 8b 87 10 10 00 00 	mov    0x1010(%rdi),%rax
  202a9b:	48 85 c0             	test   %rax,%rax
  202a9e:	0f 85 9a 14 00 00    	jne    203f3e <_ZN4spin4once13Once$LT$T$GT$9call_once17h83dd8a5f5f560670E+0x14be>
  202aa4:	ba 01 00 00 00       	mov    $0x1,%edx
  202aa9:	31 c0                	xor    %eax,%eax
  202aab:	f0 48 0f b1 11       	lock cmpxchg %rdx,(%rcx)
  202ab0:	0f 85 88 14 00 00    	jne    203f3e <_ZN4spin4once13Once$LT$T$GT$9call_once17h83dd8a5f5f560670E+0x14be>
  202ab6:	48 89 0c 24          	mov    %rcx,(%rsp)
  202aba:	c6 44 24 08 01       	movb   $0x1,0x8(%rsp)
  202abf:	48 b8 00 00 00 00 00 	movabs $0xe0000000000,%rax
  202ac6:	0e 00 00 
  202ac9:	48 89 44 24 10       	mov    %rax,0x10(%rsp)
  202ace:	48 c7 44 24 18 00 00 	movq   $0x0,0x18(%rsp)
  202ad5:	00 00 
  202ad7:	48 89 44 24 20       	mov    %rax,0x20(%rsp)
  202adc:	48 c7 44 24 28 00 00 	movq   $0x0,0x28(%rsp)
  202ae3:	00 00 
  202ae5:	48 89 44 24 30       	mov    %rax,0x30(%rsp)
  202aea:	48 c7 44 24 38 00 00 	movq   $0x0,0x38(%rsp)
  202af1:	00 00 
  202af3:	48 89 44 24 40       	mov    %rax,0x40(%rsp)
  202af8:	48 c7 44 24 48 00 00 	movq   $0x0,0x48(%rsp)
  202aff:	00 00 
  202b01:	48 89 44 24 50       	mov    %rax,0x50(%rsp)
  202b06:	48 c7 44 24 58 00 00 	movq   $0x0,0x58(%rsp)
  202b0d:	00 00 
  202b0f:	48 89 44 24 60       	mov    %rax,0x60(%rsp)
  202b14:	48 c7 44 24 68 00 00 	movq   $0x0,0x68(%rsp)
  202b1b:	00 00 
  202b1d:	48 89 44 24 70       	mov    %rax,0x70(%rsp)
  202b22:	48 c7 44 24 78 00 00 	movq   $0x0,0x78(%rsp)
  202b29:	00 00 
  202b2b:	48 89 84 24 80 00 00 	mov    %rax,0x80(%rsp)
  202b32:	00 
  202b33:	48 c7 84 24 88 00 00 	movq   $0x0,0x88(%rsp)
  202b3a:	00 00 00 00 00 
  202b3f:	48 89 84 24 90 00 00 	mov    %rax,0x90(%rsp)
  202b46:	00 
  202b47:	48 c7 84 24 98 00 00 	movq   $0x0,0x98(%rsp)
  202b4e:	00 00 00 00 00 
  202b53:	48 89 84 24 a0 00 00 	mov    %rax,0xa0(%rsp)
  202b5a:	00 
  202b5b:	48 c7 84 24 a8 00 00 	movq   $0x0,0xa8(%rsp)
  202b62:	00 00 00 00 00 
  202b67:	48 89 84 24 b0 00 00 	mov    %rax,0xb0(%rsp)
  202b6e:	00 
  202b6f:	48 c7 84 24 b8 00 00 	movq   $0x0,0xb8(%rsp)
  202b76:	00 00 00 00 00 
  202b7b:	48 89 84 24 c0 00 00 	mov    %rax,0xc0(%rsp)
  202b82:	00 
  202b83:	48 c7 84 24 c8 00 00 	movq   $0x0,0xc8(%rsp)
  202b8a:	00 00 00 00 00 
  202b8f:	48 89 84 24 d0 00 00 	mov    %rax,0xd0(%rsp)
  202b96:	00 
  202b97:	48 c7 84 24 d8 00 00 	movq   $0x0,0xd8(%rsp)
  202b9e:	00 00 00 00 00 
  202ba3:	48 89 84 24 e0 00 00 	mov    %rax,0xe0(%rsp)
  202baa:	00 
  202bab:	48 c7 84 24 e8 00 00 	movq   $0x0,0xe8(%rsp)
  202bb2:	00 00 00 00 00 
  202bb7:	48 89 84 24 f0 00 00 	mov    %rax,0xf0(%rsp)
  202bbe:	00 
  202bbf:	48 c7 84 24 f8 00 00 	movq   $0x0,0xf8(%rsp)
  202bc6:	00 00 00 00 00 
  202bcb:	48 89 84 24 00 01 00 	mov    %rax,0x100(%rsp)
  202bd2:	00 
  202bd3:	48 c7 84 24 08 01 00 	movq   $0x0,0x108(%rsp)
  202bda:	00 00 00 00 00 
  202bdf:	48 89 84 24 10 01 00 	mov    %rax,0x110(%rsp)
  202be6:	00 
  202be7:	48 c7 84 24 18 01 00 	movq   $0x0,0x118(%rsp)
  202bee:	00 00 00 00 00 
  202bf3:	48 89 84 24 20 01 00 	mov    %rax,0x120(%rsp)
  202bfa:	00 
  202bfb:	48 c7 84 24 28 01 00 	movq   $0x0,0x128(%rsp)
  202c02:	00 00 00 00 00 
  202c07:	48 89 84 24 30 01 00 	mov    %rax,0x130(%rsp)
  202c0e:	00 
  202c0f:	48 c7 84 24 38 01 00 	movq   $0x0,0x138(%rsp)
  202c16:	00 00 00 00 00 
  202c1b:	48 89 84 24 40 01 00 	mov    %rax,0x140(%rsp)
  202c22:	00 
  202c23:	48 c7 84 24 48 01 00 	movq   $0x0,0x148(%rsp)
  202c2a:	00 00 00 00 00 
  202c2f:	48 89 84 24 50 01 00 	mov    %rax,0x150(%rsp)
  202c36:	00 
  202c37:	48 c7 84 24 58 01 00 	movq   $0x0,0x158(%rsp)
  202c3e:	00 00 00 00 00 
  202c43:	48 89 84 24 60 01 00 	mov    %rax,0x160(%rsp)
  202c4a:	00 
  202c4b:	48 c7 84 24 68 01 00 	movq   $0x0,0x168(%rsp)
  202c52:	00 00 00 00 00 
  202c57:	48 89 84 24 70 01 00 	mov    %rax,0x170(%rsp)
  202c5e:	00 
  202c5f:	48 c7 84 24 78 01 00 	movq   $0x0,0x178(%rsp)
  202c66:	00 00 00 00 00 
  202c6b:	48 89 84 24 80 01 00 	mov    %rax,0x180(%rsp)
  202c72:	00 
  202c73:	48 c7 84 24 88 01 00 	movq   $0x0,0x188(%rsp)
  202c7a:	00 00 00 00 00 
  202c7f:	48 89 84 24 90 01 00 	mov    %rax,0x190(%rsp)
  202c86:	00 
  202c87:	48 c7 84 24 98 01 00 	movq   $0x0,0x198(%rsp)
  202c8e:	00 00 00 00 00 
  202c93:	48 89 84 24 a0 01 00 	mov    %rax,0x1a0(%rsp)
  202c9a:	00 
  202c9b:	48 c7 84 24 a8 01 00 	movq   $0x0,0x1a8(%rsp)
  202ca2:	00 00 00 00 00 
  202ca7:	48 89 84 24 b0 01 00 	mov    %rax,0x1b0(%rsp)
  202cae:	00 
  202caf:	48 c7 84 24 b8 01 00 	movq   $0x0,0x1b8(%rsp)
  202cb6:	00 00 00 00 00 
  202cbb:	48 89 84 24 c0 01 00 	mov    %rax,0x1c0(%rsp)
  202cc2:	00 
  202cc3:	48 c7 84 24 c8 01 00 	movq   $0x0,0x1c8(%rsp)
  202cca:	00 00 00 00 00 
  202ccf:	48 89 84 24 d0 01 00 	mov    %rax,0x1d0(%rsp)
  202cd6:	00 
  202cd7:	48 c7 84 24 d8 01 00 	movq   $0x0,0x1d8(%rsp)
  202cde:	00 00 00 00 00 
  202ce3:	48 89 84 24 e0 01 00 	mov    %rax,0x1e0(%rsp)
  202cea:	00 
  202ceb:	48 c7 84 24 e8 01 00 	movq   $0x0,0x1e8(%rsp)
  202cf2:	00 00 00 00 00 
  202cf7:	48 89 84 24 f0 01 00 	mov    %rax,0x1f0(%rsp)
  202cfe:	00 
  202cff:	48 c7 84 24 f8 01 00 	movq   $0x0,0x1f8(%rsp)
  202d06:	00 00 00 00 00 
  202d0b:	48 89 84 24 00 02 00 	mov    %rax,0x200(%rsp)
  202d12:	00 
  202d13:	48 c7 84 24 08 02 00 	movq   $0x0,0x208(%rsp)
  202d1a:	00 00 00 00 00 
  202d1f:	48 89 84 24 10 02 00 	mov    %rax,0x210(%rsp)
  202d26:	00 
  202d27:	48 c7 84 24 18 02 00 	movq   $0x0,0x218(%rsp)
  202d2e:	00 00 00 00 00 
  202d33:	48 89 84 24 20 02 00 	mov    %rax,0x220(%rsp)
  202d3a:	00 
  202d3b:	48 c7 84 24 28 02 00 	movq   $0x0,0x228(%rsp)
  202d42:	00 00 00 00 00 
  202d47:	48 89 84 24 30 02 00 	mov    %rax,0x230(%rsp)
  202d4e:	00 
  202d4f:	48 c7 84 24 38 02 00 	movq   $0x0,0x238(%rsp)
  202d56:	00 00 00 00 00 
  202d5b:	48 89 84 24 40 02 00 	mov    %rax,0x240(%rsp)
  202d62:	00 
  202d63:	48 c7 84 24 48 02 00 	movq   $0x0,0x248(%rsp)
  202d6a:	00 00 00 00 00 
  202d6f:	48 89 84 24 50 02 00 	mov    %rax,0x250(%rsp)
  202d76:	00 
  202d77:	48 c7 84 24 58 02 00 	movq   $0x0,0x258(%rsp)
  202d7e:	00 00 00 00 00 
  202d83:	48 89 84 24 60 02 00 	mov    %rax,0x260(%rsp)
  202d8a:	00 
  202d8b:	48 c7 84 24 68 02 00 	movq   $0x0,0x268(%rsp)
  202d92:	00 00 00 00 00 
  202d97:	48 89 84 24 70 02 00 	mov    %rax,0x270(%rsp)
  202d9e:	00 
  202d9f:	48 c7 84 24 78 02 00 	movq   $0x0,0x278(%rsp)
  202da6:	00 00 00 00 00 
  202dab:	48 89 84 24 80 02 00 	mov    %rax,0x280(%rsp)
  202db2:	00 
  202db3:	48 c7 84 24 88 02 00 	movq   $0x0,0x288(%rsp)
  202dba:	00 00 00 00 00 
  202dbf:	48 89 84 24 90 02 00 	mov    %rax,0x290(%rsp)
  202dc6:	00 
  202dc7:	48 c7 84 24 98 02 00 	movq   $0x0,0x298(%rsp)
  202dce:	00 00 00 00 00 
  202dd3:	48 89 84 24 a0 02 00 	mov    %rax,0x2a0(%rsp)
  202dda:	00 
  202ddb:	48 c7 84 24 a8 02 00 	movq   $0x0,0x2a8(%rsp)
  202de2:	00 00 00 00 00 
  202de7:	48 89 84 24 b0 02 00 	mov    %rax,0x2b0(%rsp)
  202dee:	00 
  202def:	48 c7 84 24 b8 02 00 	movq   $0x0,0x2b8(%rsp)
  202df6:	00 00 00 00 00 
  202dfb:	48 89 84 24 c0 02 00 	mov    %rax,0x2c0(%rsp)
  202e02:	00 
  202e03:	48 c7 84 24 c8 02 00 	movq   $0x0,0x2c8(%rsp)
  202e0a:	00 00 00 00 00 
  202e0f:	48 89 84 24 d0 02 00 	mov    %rax,0x2d0(%rsp)
  202e16:	00 
  202e17:	48 c7 84 24 d8 02 00 	movq   $0x0,0x2d8(%rsp)
  202e1e:	00 00 00 00 00 
  202e23:	48 89 84 24 e0 02 00 	mov    %rax,0x2e0(%rsp)
  202e2a:	00 
  202e2b:	48 c7 84 24 e8 02 00 	movq   $0x0,0x2e8(%rsp)
  202e32:	00 00 00 00 00 
  202e37:	48 89 84 24 f0 02 00 	mov    %rax,0x2f0(%rsp)
  202e3e:	00 
  202e3f:	48 c7 84 24 f8 02 00 	movq   $0x0,0x2f8(%rsp)
  202e46:	00 00 00 00 00 
  202e4b:	48 89 84 24 00 03 00 	mov    %rax,0x300(%rsp)
  202e52:	00 
  202e53:	48 c7 84 24 08 03 00 	movq   $0x0,0x308(%rsp)
  202e5a:	00 00 00 00 00 
  202e5f:	48 89 84 24 10 03 00 	mov    %rax,0x310(%rsp)
  202e66:	00 
  202e67:	48 c7 84 24 18 03 00 	movq   $0x0,0x318(%rsp)
  202e6e:	00 00 00 00 00 
  202e73:	48 89 84 24 20 03 00 	mov    %rax,0x320(%rsp)
  202e7a:	00 
  202e7b:	48 c7 84 24 28 03 00 	movq   $0x0,0x328(%rsp)
  202e82:	00 00 00 00 00 
  202e87:	48 89 84 24 30 03 00 	mov    %rax,0x330(%rsp)
  202e8e:	00 
  202e8f:	48 c7 84 24 38 03 00 	movq   $0x0,0x338(%rsp)
  202e96:	00 00 00 00 00 
  202e9b:	48 89 84 24 40 03 00 	mov    %rax,0x340(%rsp)
  202ea2:	00 
  202ea3:	48 c7 84 24 48 03 00 	movq   $0x0,0x348(%rsp)
  202eaa:	00 00 00 00 00 
  202eaf:	48 89 84 24 50 03 00 	mov    %rax,0x350(%rsp)
  202eb6:	00 
  202eb7:	48 c7 84 24 58 03 00 	movq   $0x0,0x358(%rsp)
  202ebe:	00 00 00 00 00 
  202ec3:	48 89 84 24 60 03 00 	mov    %rax,0x360(%rsp)
  202eca:	00 
  202ecb:	48 c7 84 24 68 03 00 	movq   $0x0,0x368(%rsp)
  202ed2:	00 00 00 00 00 
  202ed7:	48 89 84 24 70 03 00 	mov    %rax,0x370(%rsp)
  202ede:	00 
  202edf:	48 c7 84 24 78 03 00 	movq   $0x0,0x378(%rsp)
  202ee6:	00 00 00 00 00 
  202eeb:	48 89 84 24 80 03 00 	mov    %rax,0x380(%rsp)
  202ef2:	00 
  202ef3:	48 c7 84 24 88 03 00 	movq   $0x0,0x388(%rsp)
  202efa:	00 00 00 00 00 
  202eff:	48 89 84 24 90 03 00 	mov    %rax,0x390(%rsp)
  202f06:	00 
  202f07:	48 c7 84 24 98 03 00 	movq   $0x0,0x398(%rsp)
  202f0e:	00 00 00 00 00 
  202f13:	48 89 84 24 a0 03 00 	mov    %rax,0x3a0(%rsp)
  202f1a:	00 
  202f1b:	48 c7 84 24 a8 03 00 	movq   $0x0,0x3a8(%rsp)
  202f22:	00 00 00 00 00 
  202f27:	48 89 84 24 b0 03 00 	mov    %rax,0x3b0(%rsp)
  202f2e:	00 
  202f2f:	48 c7 84 24 b8 03 00 	movq   $0x0,0x3b8(%rsp)
  202f36:	00 00 00 00 00 
  202f3b:	48 89 84 24 c0 03 00 	mov    %rax,0x3c0(%rsp)
  202f42:	00 
  202f43:	48 c7 84 24 c8 03 00 	movq   $0x0,0x3c8(%rsp)
  202f4a:	00 00 00 00 00 
  202f4f:	48 89 84 24 d0 03 00 	mov    %rax,0x3d0(%rsp)
  202f56:	00 
  202f57:	48 c7 84 24 d8 03 00 	movq   $0x0,0x3d8(%rsp)
  202f5e:	00 00 00 00 00 
  202f63:	48 89 84 24 e0 03 00 	mov    %rax,0x3e0(%rsp)
  202f6a:	00 
  202f6b:	48 c7 84 24 e8 03 00 	movq   $0x0,0x3e8(%rsp)
  202f72:	00 00 00 00 00 
  202f77:	48 89 84 24 f0 03 00 	mov    %rax,0x3f0(%rsp)
  202f7e:	00 
  202f7f:	48 c7 84 24 f8 03 00 	movq   $0x0,0x3f8(%rsp)
  202f86:	00 00 00 00 00 
  202f8b:	48 89 84 24 00 04 00 	mov    %rax,0x400(%rsp)
  202f92:	00 
  202f93:	48 c7 84 24 08 04 00 	movq   $0x0,0x408(%rsp)
  202f9a:	00 00 00 00 00 
  202f9f:	48 89 84 24 10 04 00 	mov    %rax,0x410(%rsp)
  202fa6:	00 
  202fa7:	48 c7 84 24 18 04 00 	movq   $0x0,0x418(%rsp)
  202fae:	00 00 00 00 00 
  202fb3:	48 89 84 24 20 04 00 	mov    %rax,0x420(%rsp)
  202fba:	00 
  202fbb:	48 c7 84 24 28 04 00 	movq   $0x0,0x428(%rsp)
  202fc2:	00 00 00 00 00 
  202fc7:	48 89 84 24 30 04 00 	mov    %rax,0x430(%rsp)
  202fce:	00 
  202fcf:	48 c7 84 24 38 04 00 	movq   $0x0,0x438(%rsp)
  202fd6:	00 00 00 00 00 
  202fdb:	48 89 84 24 40 04 00 	mov    %rax,0x440(%rsp)
  202fe2:	00 
  202fe3:	48 c7 84 24 48 04 00 	movq   $0x0,0x448(%rsp)
  202fea:	00 00 00 00 00 
  202fef:	48 89 84 24 50 04 00 	mov    %rax,0x450(%rsp)
  202ff6:	00 
  202ff7:	48 c7 84 24 58 04 00 	movq   $0x0,0x458(%rsp)
  202ffe:	00 00 00 00 00 
  203003:	48 89 84 24 60 04 00 	mov    %rax,0x460(%rsp)
  20300a:	00 
  20300b:	48 c7 84 24 68 04 00 	movq   $0x0,0x468(%rsp)
  203012:	00 00 00 00 00 
  203017:	48 89 84 24 70 04 00 	mov    %rax,0x470(%rsp)
  20301e:	00 
  20301f:	48 c7 84 24 78 04 00 	movq   $0x0,0x478(%rsp)
  203026:	00 00 00 00 00 
  20302b:	48 89 84 24 80 04 00 	mov    %rax,0x480(%rsp)
  203032:	00 
  203033:	48 c7 84 24 88 04 00 	movq   $0x0,0x488(%rsp)
  20303a:	00 00 00 00 00 
  20303f:	48 89 84 24 90 04 00 	mov    %rax,0x490(%rsp)
  203046:	00 
  203047:	48 c7 84 24 98 04 00 	movq   $0x0,0x498(%rsp)
  20304e:	00 00 00 00 00 
  203053:	48 89 84 24 a0 04 00 	mov    %rax,0x4a0(%rsp)
  20305a:	00 
  20305b:	48 c7 84 24 a8 04 00 	movq   $0x0,0x4a8(%rsp)
  203062:	00 00 00 00 00 
  203067:	48 89 84 24 b0 04 00 	mov    %rax,0x4b0(%rsp)
  20306e:	00 
  20306f:	48 c7 84 24 b8 04 00 	movq   $0x0,0x4b8(%rsp)
  203076:	00 00 00 00 00 
  20307b:	48 89 84 24 c0 04 00 	mov    %rax,0x4c0(%rsp)
  203082:	00 
  203083:	48 c7 84 24 c8 04 00 	movq   $0x0,0x4c8(%rsp)
  20308a:	00 00 00 00 00 
  20308f:	48 89 84 24 d0 04 00 	mov    %rax,0x4d0(%rsp)
  203096:	00 
  203097:	48 c7 84 24 d8 04 00 	movq   $0x0,0x4d8(%rsp)
  20309e:	00 00 00 00 00 
  2030a3:	48 89 84 24 e0 04 00 	mov    %rax,0x4e0(%rsp)
  2030aa:	00 
  2030ab:	48 c7 84 24 e8 04 00 	movq   $0x0,0x4e8(%rsp)
  2030b2:	00 00 00 00 00 
  2030b7:	48 89 84 24 f0 04 00 	mov    %rax,0x4f0(%rsp)
  2030be:	00 
  2030bf:	48 c7 84 24 f8 04 00 	movq   $0x0,0x4f8(%rsp)
  2030c6:	00 00 00 00 00 
  2030cb:	48 89 84 24 00 05 00 	mov    %rax,0x500(%rsp)
  2030d2:	00 
  2030d3:	48 c7 84 24 08 05 00 	movq   $0x0,0x508(%rsp)
  2030da:	00 00 00 00 00 
  2030df:	48 89 84 24 10 05 00 	mov    %rax,0x510(%rsp)
  2030e6:	00 
  2030e7:	48 c7 84 24 18 05 00 	movq   $0x0,0x518(%rsp)
  2030ee:	00 00 00 00 00 
  2030f3:	48 89 84 24 20 05 00 	mov    %rax,0x520(%rsp)
  2030fa:	00 
  2030fb:	48 c7 84 24 28 05 00 	movq   $0x0,0x528(%rsp)
  203102:	00 00 00 00 00 
  203107:	48 89 84 24 30 05 00 	mov    %rax,0x530(%rsp)
  20310e:	00 
  20310f:	48 c7 84 24 38 05 00 	movq   $0x0,0x538(%rsp)
  203116:	00 00 00 00 00 
  20311b:	48 89 84 24 40 05 00 	mov    %rax,0x540(%rsp)
  203122:	00 
  203123:	48 c7 84 24 48 05 00 	movq   $0x0,0x548(%rsp)
  20312a:	00 00 00 00 00 
  20312f:	48 89 84 24 50 05 00 	mov    %rax,0x550(%rsp)
  203136:	00 
  203137:	48 c7 84 24 58 05 00 	movq   $0x0,0x558(%rsp)
  20313e:	00 00 00 00 00 
  203143:	48 89 84 24 60 05 00 	mov    %rax,0x560(%rsp)
  20314a:	00 
  20314b:	48 c7 84 24 68 05 00 	movq   $0x0,0x568(%rsp)
  203152:	00 00 00 00 00 
  203157:	48 89 84 24 70 05 00 	mov    %rax,0x570(%rsp)
  20315e:	00 
  20315f:	48 c7 84 24 78 05 00 	movq   $0x0,0x578(%rsp)
  203166:	00 00 00 00 00 
  20316b:	48 89 84 24 80 05 00 	mov    %rax,0x580(%rsp)
  203172:	00 
  203173:	48 c7 84 24 88 05 00 	movq   $0x0,0x588(%rsp)
  20317a:	00 00 00 00 00 
  20317f:	48 89 84 24 90 05 00 	mov    %rax,0x590(%rsp)
  203186:	00 
  203187:	48 c7 84 24 98 05 00 	movq   $0x0,0x598(%rsp)
  20318e:	00 00 00 00 00 
  203193:	48 89 84 24 a0 05 00 	mov    %rax,0x5a0(%rsp)
  20319a:	00 
  20319b:	48 c7 84 24 a8 05 00 	movq   $0x0,0x5a8(%rsp)
  2031a2:	00 00 00 00 00 
  2031a7:	48 89 84 24 b0 05 00 	mov    %rax,0x5b0(%rsp)
  2031ae:	00 
  2031af:	48 c7 84 24 b8 05 00 	movq   $0x0,0x5b8(%rsp)
  2031b6:	00 00 00 00 00 
  2031bb:	48 89 84 24 c0 05 00 	mov    %rax,0x5c0(%rsp)
  2031c2:	00 
  2031c3:	48 c7 84 24 c8 05 00 	movq   $0x0,0x5c8(%rsp)
  2031ca:	00 00 00 00 00 
  2031cf:	48 89 84 24 d0 05 00 	mov    %rax,0x5d0(%rsp)
  2031d6:	00 
  2031d7:	48 c7 84 24 d8 05 00 	movq   $0x0,0x5d8(%rsp)
  2031de:	00 00 00 00 00 
  2031e3:	48 89 84 24 e0 05 00 	mov    %rax,0x5e0(%rsp)
  2031ea:	00 
  2031eb:	48 c7 84 24 e8 05 00 	movq   $0x0,0x5e8(%rsp)
  2031f2:	00 00 00 00 00 
  2031f7:	48 89 84 24 f0 05 00 	mov    %rax,0x5f0(%rsp)
  2031fe:	00 
  2031ff:	48 c7 84 24 f8 05 00 	movq   $0x0,0x5f8(%rsp)
  203206:	00 00 00 00 00 
  20320b:	48 89 84 24 00 06 00 	mov    %rax,0x600(%rsp)
  203212:	00 
  203213:	48 c7 84 24 08 06 00 	movq   $0x0,0x608(%rsp)
  20321a:	00 00 00 00 00 
  20321f:	48 89 84 24 10 06 00 	mov    %rax,0x610(%rsp)
  203226:	00 
  203227:	48 c7 84 24 18 06 00 	movq   $0x0,0x618(%rsp)
  20322e:	00 00 00 00 00 
  203233:	48 89 84 24 20 06 00 	mov    %rax,0x620(%rsp)
  20323a:	00 
  20323b:	48 c7 84 24 28 06 00 	movq   $0x0,0x628(%rsp)
  203242:	00 00 00 00 00 
  203247:	48 89 84 24 30 06 00 	mov    %rax,0x630(%rsp)
  20324e:	00 
  20324f:	48 c7 84 24 38 06 00 	movq   $0x0,0x638(%rsp)
  203256:	00 00 00 00 00 
  20325b:	48 89 84 24 40 06 00 	mov    %rax,0x640(%rsp)
  203262:	00 
  203263:	48 c7 84 24 48 06 00 	movq   $0x0,0x648(%rsp)
  20326a:	00 00 00 00 00 
  20326f:	48 89 84 24 50 06 00 	mov    %rax,0x650(%rsp)
  203276:	00 
  203277:	48 c7 84 24 58 06 00 	movq   $0x0,0x658(%rsp)
  20327e:	00 00 00 00 00 
  203283:	48 89 84 24 60 06 00 	mov    %rax,0x660(%rsp)
  20328a:	00 
  20328b:	48 c7 84 24 68 06 00 	movq   $0x0,0x668(%rsp)
  203292:	00 00 00 00 00 
  203297:	48 89 84 24 70 06 00 	mov    %rax,0x670(%rsp)
  20329e:	00 
  20329f:	48 c7 84 24 78 06 00 	movq   $0x0,0x678(%rsp)
  2032a6:	00 00 00 00 00 
  2032ab:	48 89 84 24 80 06 00 	mov    %rax,0x680(%rsp)
  2032b2:	00 
  2032b3:	48 c7 84 24 88 06 00 	movq   $0x0,0x688(%rsp)
  2032ba:	00 00 00 00 00 
  2032bf:	48 89 84 24 90 06 00 	mov    %rax,0x690(%rsp)
  2032c6:	00 
  2032c7:	48 c7 84 24 98 06 00 	movq   $0x0,0x698(%rsp)
  2032ce:	00 00 00 00 00 
  2032d3:	48 89 84 24 a0 06 00 	mov    %rax,0x6a0(%rsp)
  2032da:	00 
  2032db:	48 c7 84 24 a8 06 00 	movq   $0x0,0x6a8(%rsp)
  2032e2:	00 00 00 00 00 
  2032e7:	48 89 84 24 b0 06 00 	mov    %rax,0x6b0(%rsp)
  2032ee:	00 
  2032ef:	48 c7 84 24 b8 06 00 	movq   $0x0,0x6b8(%rsp)
  2032f6:	00 00 00 00 00 
  2032fb:	48 89 84 24 c0 06 00 	mov    %rax,0x6c0(%rsp)
  203302:	00 
  203303:	48 c7 84 24 c8 06 00 	movq   $0x0,0x6c8(%rsp)
  20330a:	00 00 00 00 00 
  20330f:	48 89 84 24 d0 06 00 	mov    %rax,0x6d0(%rsp)
  203316:	00 
  203317:	48 c7 84 24 d8 06 00 	movq   $0x0,0x6d8(%rsp)
  20331e:	00 00 00 00 00 
  203323:	48 89 84 24 e0 06 00 	mov    %rax,0x6e0(%rsp)
  20332a:	00 
  20332b:	48 c7 84 24 e8 06 00 	movq   $0x0,0x6e8(%rsp)
  203332:	00 00 00 00 00 
  203337:	48 89 84 24 f0 06 00 	mov    %rax,0x6f0(%rsp)
  20333e:	00 
  20333f:	48 c7 84 24 f8 06 00 	movq   $0x0,0x6f8(%rsp)
  203346:	00 00 00 00 00 
  20334b:	48 89 84 24 00 07 00 	mov    %rax,0x700(%rsp)
  203352:	00 
  203353:	48 c7 84 24 08 07 00 	movq   $0x0,0x708(%rsp)
  20335a:	00 00 00 00 00 
  20335f:	48 89 84 24 10 07 00 	mov    %rax,0x710(%rsp)
  203366:	00 
  203367:	48 c7 84 24 18 07 00 	movq   $0x0,0x718(%rsp)
  20336e:	00 00 00 00 00 
  203373:	48 89 84 24 20 07 00 	mov    %rax,0x720(%rsp)
  20337a:	00 
  20337b:	48 c7 84 24 28 07 00 	movq   $0x0,0x728(%rsp)
  203382:	00 00 00 00 00 
  203387:	48 89 84 24 30 07 00 	mov    %rax,0x730(%rsp)
  20338e:	00 
  20338f:	48 c7 84 24 38 07 00 	movq   $0x0,0x738(%rsp)
  203396:	00 00 00 00 00 
  20339b:	48 89 84 24 40 07 00 	mov    %rax,0x740(%rsp)
  2033a2:	00 
  2033a3:	48 c7 84 24 48 07 00 	movq   $0x0,0x748(%rsp)
  2033aa:	00 00 00 00 00 
  2033af:	48 89 84 24 50 07 00 	mov    %rax,0x750(%rsp)
  2033b6:	00 
  2033b7:	48 c7 84 24 58 07 00 	movq   $0x0,0x758(%rsp)
  2033be:	00 00 00 00 00 
  2033c3:	48 89 84 24 60 07 00 	mov    %rax,0x760(%rsp)
  2033ca:	00 
  2033cb:	48 c7 84 24 68 07 00 	movq   $0x0,0x768(%rsp)
  2033d2:	00 00 00 00 00 
  2033d7:	48 89 84 24 70 07 00 	mov    %rax,0x770(%rsp)
  2033de:	00 
  2033df:	48 c7 84 24 78 07 00 	movq   $0x0,0x778(%rsp)
  2033e6:	00 00 00 00 00 
  2033eb:	48 89 84 24 80 07 00 	mov    %rax,0x780(%rsp)
  2033f2:	00 
  2033f3:	48 c7 84 24 88 07 00 	movq   $0x0,0x788(%rsp)
  2033fa:	00 00 00 00 00 
  2033ff:	48 89 84 24 90 07 00 	mov    %rax,0x790(%rsp)
  203406:	00 
  203407:	48 c7 84 24 98 07 00 	movq   $0x0,0x798(%rsp)
  20340e:	00 00 00 00 00 
  203413:	48 89 84 24 a0 07 00 	mov    %rax,0x7a0(%rsp)
  20341a:	00 
  20341b:	48 c7 84 24 a8 07 00 	movq   $0x0,0x7a8(%rsp)
  203422:	00 00 00 00 00 
  203427:	48 89 84 24 b0 07 00 	mov    %rax,0x7b0(%rsp)
  20342e:	00 
  20342f:	48 c7 84 24 b8 07 00 	movq   $0x0,0x7b8(%rsp)
  203436:	00 00 00 00 00 
  20343b:	48 89 84 24 c0 07 00 	mov    %rax,0x7c0(%rsp)
  203442:	00 
  203443:	48 c7 84 24 c8 07 00 	movq   $0x0,0x7c8(%rsp)
  20344a:	00 00 00 00 00 
  20344f:	48 89 84 24 d0 07 00 	mov    %rax,0x7d0(%rsp)
  203456:	00 
  203457:	48 c7 84 24 d8 07 00 	movq   $0x0,0x7d8(%rsp)
  20345e:	00 00 00 00 00 
  203463:	48 89 84 24 e0 07 00 	mov    %rax,0x7e0(%rsp)
  20346a:	00 
  20346b:	48 c7 84 24 e8 07 00 	movq   $0x0,0x7e8(%rsp)
  203472:	00 00 00 00 00 
  203477:	48 89 84 24 f0 07 00 	mov    %rax,0x7f0(%rsp)
  20347e:	00 
  20347f:	48 c7 84 24 f8 07 00 	movq   $0x0,0x7f8(%rsp)
  203486:	00 00 00 00 00 
  20348b:	48 89 84 24 00 08 00 	mov    %rax,0x800(%rsp)
  203492:	00 
  203493:	48 c7 84 24 08 08 00 	movq   $0x0,0x808(%rsp)
  20349a:	00 00 00 00 00 
  20349f:	48 89 84 24 10 08 00 	mov    %rax,0x810(%rsp)
  2034a6:	00 
  2034a7:	48 c7 84 24 18 08 00 	movq   $0x0,0x818(%rsp)
  2034ae:	00 00 00 00 00 
  2034b3:	48 89 84 24 20 08 00 	mov    %rax,0x820(%rsp)
  2034ba:	00 
  2034bb:	48 c7 84 24 28 08 00 	movq   $0x0,0x828(%rsp)
  2034c2:	00 00 00 00 00 
  2034c7:	48 89 84 24 30 08 00 	mov    %rax,0x830(%rsp)
  2034ce:	00 
  2034cf:	48 c7 84 24 38 08 00 	movq   $0x0,0x838(%rsp)
  2034d6:	00 00 00 00 00 
  2034db:	48 89 84 24 40 08 00 	mov    %rax,0x840(%rsp)
  2034e2:	00 
  2034e3:	48 c7 84 24 48 08 00 	movq   $0x0,0x848(%rsp)
  2034ea:	00 00 00 00 00 
  2034ef:	48 89 84 24 50 08 00 	mov    %rax,0x850(%rsp)
  2034f6:	00 
  2034f7:	48 c7 84 24 58 08 00 	movq   $0x0,0x858(%rsp)
  2034fe:	00 00 00 00 00 
  203503:	48 89 84 24 60 08 00 	mov    %rax,0x860(%rsp)
  20350a:	00 
  20350b:	48 c7 84 24 68 08 00 	movq   $0x0,0x868(%rsp)
  203512:	00 00 00 00 00 
  203517:	48 89 84 24 70 08 00 	mov    %rax,0x870(%rsp)
  20351e:	00 
  20351f:	48 c7 84 24 78 08 00 	movq   $0x0,0x878(%rsp)
  203526:	00 00 00 00 00 
  20352b:	48 89 84 24 80 08 00 	mov    %rax,0x880(%rsp)
  203532:	00 
  203533:	48 c7 84 24 88 08 00 	movq   $0x0,0x888(%rsp)
  20353a:	00 00 00 00 00 
  20353f:	48 89 84 24 90 08 00 	mov    %rax,0x890(%rsp)
  203546:	00 
  203547:	48 c7 84 24 98 08 00 	movq   $0x0,0x898(%rsp)
  20354e:	00 00 00 00 00 
  203553:	48 89 84 24 a0 08 00 	mov    %rax,0x8a0(%rsp)
  20355a:	00 
  20355b:	48 c7 84 24 a8 08 00 	movq   $0x0,0x8a8(%rsp)
  203562:	00 00 00 00 00 
  203567:	48 89 84 24 b0 08 00 	mov    %rax,0x8b0(%rsp)
  20356e:	00 
  20356f:	48 c7 84 24 b8 08 00 	movq   $0x0,0x8b8(%rsp)
  203576:	00 00 00 00 00 
  20357b:	48 89 84 24 c0 08 00 	mov    %rax,0x8c0(%rsp)
  203582:	00 
  203583:	48 c7 84 24 c8 08 00 	movq   $0x0,0x8c8(%rsp)
  20358a:	00 00 00 00 00 
  20358f:	48 89 84 24 d0 08 00 	mov    %rax,0x8d0(%rsp)
  203596:	00 
  203597:	48 c7 84 24 d8 08 00 	movq   $0x0,0x8d8(%rsp)
  20359e:	00 00 00 00 00 
  2035a3:	48 89 84 24 e0 08 00 	mov    %rax,0x8e0(%rsp)
  2035aa:	00 
  2035ab:	48 c7 84 24 e8 08 00 	movq   $0x0,0x8e8(%rsp)
  2035b2:	00 00 00 00 00 
  2035b7:	48 89 84 24 f0 08 00 	mov    %rax,0x8f0(%rsp)
  2035be:	00 
  2035bf:	48 c7 84 24 f8 08 00 	movq   $0x0,0x8f8(%rsp)
  2035c6:	00 00 00 00 00 
  2035cb:	48 89 84 24 00 09 00 	mov    %rax,0x900(%rsp)
  2035d2:	00 
  2035d3:	48 c7 84 24 08 09 00 	movq   $0x0,0x908(%rsp)
  2035da:	00 00 00 00 00 
  2035df:	48 89 84 24 10 09 00 	mov    %rax,0x910(%rsp)
  2035e6:	00 
  2035e7:	48 c7 84 24 18 09 00 	movq   $0x0,0x918(%rsp)
  2035ee:	00 00 00 00 00 
  2035f3:	48 89 84 24 20 09 00 	mov    %rax,0x920(%rsp)
  2035fa:	00 
  2035fb:	48 c7 84 24 28 09 00 	movq   $0x0,0x928(%rsp)
  203602:	00 00 00 00 00 
  203607:	48 89 84 24 30 09 00 	mov    %rax,0x930(%rsp)
  20360e:	00 
  20360f:	48 c7 84 24 38 09 00 	movq   $0x0,0x938(%rsp)
  203616:	00 00 00 00 00 
  20361b:	48 89 84 24 40 09 00 	mov    %rax,0x940(%rsp)
  203622:	00 
  203623:	48 c7 84 24 48 09 00 	movq   $0x0,0x948(%rsp)
  20362a:	00 00 00 00 00 
  20362f:	48 89 84 24 50 09 00 	mov    %rax,0x950(%rsp)
  203636:	00 
  203637:	48 c7 84 24 58 09 00 	movq   $0x0,0x958(%rsp)
  20363e:	00 00 00 00 00 
  203643:	48 89 84 24 60 09 00 	mov    %rax,0x960(%rsp)
  20364a:	00 
  20364b:	48 c7 84 24 68 09 00 	movq   $0x0,0x968(%rsp)
  203652:	00 00 00 00 00 
  203657:	48 89 84 24 70 09 00 	mov    %rax,0x970(%rsp)
  20365e:	00 
  20365f:	48 c7 84 24 78 09 00 	movq   $0x0,0x978(%rsp)
  203666:	00 00 00 00 00 
  20366b:	48 89 84 24 80 09 00 	mov    %rax,0x980(%rsp)
  203672:	00 
  203673:	48 c7 84 24 88 09 00 	movq   $0x0,0x988(%rsp)
  20367a:	00 00 00 00 00 
  20367f:	48 89 84 24 90 09 00 	mov    %rax,0x990(%rsp)
  203686:	00 
  203687:	48 c7 84 24 98 09 00 	movq   $0x0,0x998(%rsp)
  20368e:	00 00 00 00 00 
  203693:	48 89 84 24 a0 09 00 	mov    %rax,0x9a0(%rsp)
  20369a:	00 
  20369b:	48 c7 84 24 a8 09 00 	movq   $0x0,0x9a8(%rsp)
  2036a2:	00 00 00 00 00 
  2036a7:	48 89 84 24 b0 09 00 	mov    %rax,0x9b0(%rsp)
  2036ae:	00 
  2036af:	48 c7 84 24 b8 09 00 	movq   $0x0,0x9b8(%rsp)
  2036b6:	00 00 00 00 00 
  2036bb:	48 89 84 24 c0 09 00 	mov    %rax,0x9c0(%rsp)
  2036c2:	00 
  2036c3:	48 c7 84 24 c8 09 00 	movq   $0x0,0x9c8(%rsp)
  2036ca:	00 00 00 00 00 
  2036cf:	48 89 84 24 d0 09 00 	mov    %rax,0x9d0(%rsp)
  2036d6:	00 
  2036d7:	48 c7 84 24 d8 09 00 	movq   $0x0,0x9d8(%rsp)
  2036de:	00 00 00 00 00 
  2036e3:	48 89 84 24 e0 09 00 	mov    %rax,0x9e0(%rsp)
  2036ea:	00 
  2036eb:	48 c7 84 24 e8 09 00 	movq   $0x0,0x9e8(%rsp)
  2036f2:	00 00 00 00 00 
  2036f7:	48 89 84 24 f0 09 00 	mov    %rax,0x9f0(%rsp)
  2036fe:	00 
  2036ff:	48 c7 84 24 f8 09 00 	movq   $0x0,0x9f8(%rsp)
  203706:	00 00 00 00 00 
  20370b:	48 89 84 24 00 0a 00 	mov    %rax,0xa00(%rsp)
  203712:	00 
  203713:	48 c7 84 24 08 0a 00 	movq   $0x0,0xa08(%rsp)
  20371a:	00 00 00 00 00 
  20371f:	48 89 84 24 10 0a 00 	mov    %rax,0xa10(%rsp)
  203726:	00 
  203727:	48 c7 84 24 18 0a 00 	movq   $0x0,0xa18(%rsp)
  20372e:	00 00 00 00 00 
  203733:	48 89 84 24 20 0a 00 	mov    %rax,0xa20(%rsp)
  20373a:	00 
  20373b:	48 c7 84 24 28 0a 00 	movq   $0x0,0xa28(%rsp)
  203742:	00 00 00 00 00 
  203747:	48 89 84 24 30 0a 00 	mov    %rax,0xa30(%rsp)
  20374e:	00 
  20374f:	48 c7 84 24 38 0a 00 	movq   $0x0,0xa38(%rsp)
  203756:	00 00 00 00 00 
  20375b:	48 89 84 24 40 0a 00 	mov    %rax,0xa40(%rsp)
  203762:	00 
  203763:	48 c7 84 24 48 0a 00 	movq   $0x0,0xa48(%rsp)
  20376a:	00 00 00 00 00 
  20376f:	48 89 84 24 50 0a 00 	mov    %rax,0xa50(%rsp)
  203776:	00 
  203777:	48 c7 84 24 58 0a 00 	movq   $0x0,0xa58(%rsp)
  20377e:	00 00 00 00 00 
  203783:	48 89 84 24 60 0a 00 	mov    %rax,0xa60(%rsp)
  20378a:	00 
  20378b:	48 c7 84 24 68 0a 00 	movq   $0x0,0xa68(%rsp)
  203792:	00 00 00 00 00 
  203797:	48 89 84 24 70 0a 00 	mov    %rax,0xa70(%rsp)
  20379e:	00 
  20379f:	48 c7 84 24 78 0a 00 	movq   $0x0,0xa78(%rsp)
  2037a6:	00 00 00 00 00 
  2037ab:	48 89 84 24 80 0a 00 	mov    %rax,0xa80(%rsp)
  2037b2:	00 
  2037b3:	48 c7 84 24 88 0a 00 	movq   $0x0,0xa88(%rsp)
  2037ba:	00 00 00 00 00 
  2037bf:	48 89 84 24 90 0a 00 	mov    %rax,0xa90(%rsp)
  2037c6:	00 
  2037c7:	48 c7 84 24 98 0a 00 	movq   $0x0,0xa98(%rsp)
  2037ce:	00 00 00 00 00 
  2037d3:	48 89 84 24 a0 0a 00 	mov    %rax,0xaa0(%rsp)
  2037da:	00 
  2037db:	48 c7 84 24 a8 0a 00 	movq   $0x0,0xaa8(%rsp)
  2037e2:	00 00 00 00 00 
  2037e7:	48 89 84 24 b0 0a 00 	mov    %rax,0xab0(%rsp)
  2037ee:	00 
  2037ef:	48 c7 84 24 b8 0a 00 	movq   $0x0,0xab8(%rsp)
  2037f6:	00 00 00 00 00 
  2037fb:	48 89 84 24 c0 0a 00 	mov    %rax,0xac0(%rsp)
  203802:	00 
  203803:	48 c7 84 24 c8 0a 00 	movq   $0x0,0xac8(%rsp)
  20380a:	00 00 00 00 00 
  20380f:	48 89 84 24 d0 0a 00 	mov    %rax,0xad0(%rsp)
  203816:	00 
  203817:	48 c7 84 24 d8 0a 00 	movq   $0x0,0xad8(%rsp)
  20381e:	00 00 00 00 00 
  203823:	48 89 84 24 e0 0a 00 	mov    %rax,0xae0(%rsp)
  20382a:	00 
  20382b:	48 c7 84 24 e8 0a 00 	movq   $0x0,0xae8(%rsp)
  203832:	00 00 00 00 00 
  203837:	48 89 84 24 f0 0a 00 	mov    %rax,0xaf0(%rsp)
  20383e:	00 
  20383f:	48 c7 84 24 f8 0a 00 	movq   $0x0,0xaf8(%rsp)
  203846:	00 00 00 00 00 
  20384b:	48 89 84 24 00 0b 00 	mov    %rax,0xb00(%rsp)
  203852:	00 
  203853:	48 c7 84 24 08 0b 00 	movq   $0x0,0xb08(%rsp)
  20385a:	00 00 00 00 00 
  20385f:	48 89 84 24 10 0b 00 	mov    %rax,0xb10(%rsp)
  203866:	00 
  203867:	48 c7 84 24 18 0b 00 	movq   $0x0,0xb18(%rsp)
  20386e:	00 00 00 00 00 
  203873:	48 89 84 24 20 0b 00 	mov    %rax,0xb20(%rsp)
  20387a:	00 
  20387b:	48 c7 84 24 28 0b 00 	movq   $0x0,0xb28(%rsp)
  203882:	00 00 00 00 00 
  203887:	48 89 84 24 30 0b 00 	mov    %rax,0xb30(%rsp)
  20388e:	00 
  20388f:	48 c7 84 24 38 0b 00 	movq   $0x0,0xb38(%rsp)
  203896:	00 00 00 00 00 
  20389b:	48 89 84 24 40 0b 00 	mov    %rax,0xb40(%rsp)
  2038a2:	00 
  2038a3:	48 c7 84 24 48 0b 00 	movq   $0x0,0xb48(%rsp)
  2038aa:	00 00 00 00 00 
  2038af:	48 89 84 24 50 0b 00 	mov    %rax,0xb50(%rsp)
  2038b6:	00 
  2038b7:	48 c7 84 24 58 0b 00 	movq   $0x0,0xb58(%rsp)
  2038be:	00 00 00 00 00 
  2038c3:	48 89 84 24 60 0b 00 	mov    %rax,0xb60(%rsp)
  2038ca:	00 
  2038cb:	48 c7 84 24 68 0b 00 	movq   $0x0,0xb68(%rsp)
  2038d2:	00 00 00 00 00 
  2038d7:	48 89 84 24 70 0b 00 	mov    %rax,0xb70(%rsp)
  2038de:	00 
  2038df:	48 c7 84 24 78 0b 00 	movq   $0x0,0xb78(%rsp)
  2038e6:	00 00 00 00 00 
  2038eb:	48 89 84 24 80 0b 00 	mov    %rax,0xb80(%rsp)
  2038f2:	00 
  2038f3:	48 c7 84 24 88 0b 00 	movq   $0x0,0xb88(%rsp)
  2038fa:	00 00 00 00 00 
  2038ff:	48 89 84 24 90 0b 00 	mov    %rax,0xb90(%rsp)
  203906:	00 
  203907:	48 c7 84 24 98 0b 00 	movq   $0x0,0xb98(%rsp)
  20390e:	00 00 00 00 00 
  203913:	48 89 84 24 a0 0b 00 	mov    %rax,0xba0(%rsp)
  20391a:	00 
  20391b:	48 c7 84 24 a8 0b 00 	movq   $0x0,0xba8(%rsp)
  203922:	00 00 00 00 00 
  203927:	48 89 84 24 b0 0b 00 	mov    %rax,0xbb0(%rsp)
  20392e:	00 
  20392f:	48 c7 84 24 b8 0b 00 	movq   $0x0,0xbb8(%rsp)
  203936:	00 00 00 00 00 
  20393b:	48 89 84 24 c0 0b 00 	mov    %rax,0xbc0(%rsp)
  203942:	00 
  203943:	48 c7 84 24 c8 0b 00 	movq   $0x0,0xbc8(%rsp)
  20394a:	00 00 00 00 00 
  20394f:	48 89 84 24 d0 0b 00 	mov    %rax,0xbd0(%rsp)
  203956:	00 
  203957:	48 c7 84 24 d8 0b 00 	movq   $0x0,0xbd8(%rsp)
  20395e:	00 00 00 00 00 
  203963:	48 89 84 24 e0 0b 00 	mov    %rax,0xbe0(%rsp)
  20396a:	00 
  20396b:	48 c7 84 24 e8 0b 00 	movq   $0x0,0xbe8(%rsp)
  203972:	00 00 00 00 00 
  203977:	48 89 84 24 f0 0b 00 	mov    %rax,0xbf0(%rsp)
  20397e:	00 
  20397f:	48 c7 84 24 f8 0b 00 	movq   $0x0,0xbf8(%rsp)
  203986:	00 00 00 00 00 
  20398b:	48 89 84 24 00 0c 00 	mov    %rax,0xc00(%rsp)
  203992:	00 
  203993:	48 c7 84 24 08 0c 00 	movq   $0x0,0xc08(%rsp)
  20399a:	00 00 00 00 00 
  20399f:	48 89 84 24 10 0c 00 	mov    %rax,0xc10(%rsp)
  2039a6:	00 
  2039a7:	48 c7 84 24 18 0c 00 	movq   $0x0,0xc18(%rsp)
  2039ae:	00 00 00 00 00 
  2039b3:	48 89 84 24 20 0c 00 	mov    %rax,0xc20(%rsp)
  2039ba:	00 
  2039bb:	48 c7 84 24 28 0c 00 	movq   $0x0,0xc28(%rsp)
  2039c2:	00 00 00 00 00 
  2039c7:	48 89 84 24 30 0c 00 	mov    %rax,0xc30(%rsp)
  2039ce:	00 
  2039cf:	48 c7 84 24 38 0c 00 	movq   $0x0,0xc38(%rsp)
  2039d6:	00 00 00 00 00 
  2039db:	48 89 84 24 40 0c 00 	mov    %rax,0xc40(%rsp)
  2039e2:	00 
  2039e3:	48 c7 84 24 48 0c 00 	movq   $0x0,0xc48(%rsp)
  2039ea:	00 00 00 00 00 
  2039ef:	48 89 84 24 50 0c 00 	mov    %rax,0xc50(%rsp)
  2039f6:	00 
  2039f7:	48 c7 84 24 58 0c 00 	movq   $0x0,0xc58(%rsp)
  2039fe:	00 00 00 00 00 
  203a03:	48 89 84 24 60 0c 00 	mov    %rax,0xc60(%rsp)
  203a0a:	00 
  203a0b:	48 c7 84 24 68 0c 00 	movq   $0x0,0xc68(%rsp)
  203a12:	00 00 00 00 00 
  203a17:	48 89 84 24 70 0c 00 	mov    %rax,0xc70(%rsp)
  203a1e:	00 
  203a1f:	48 c7 84 24 78 0c 00 	movq   $0x0,0xc78(%rsp)
  203a26:	00 00 00 00 00 
  203a2b:	48 89 84 24 80 0c 00 	mov    %rax,0xc80(%rsp)
  203a32:	00 
  203a33:	48 c7 84 24 88 0c 00 	movq   $0x0,0xc88(%rsp)
  203a3a:	00 00 00 00 00 
  203a3f:	48 89 84 24 90 0c 00 	mov    %rax,0xc90(%rsp)
  203a46:	00 
  203a47:	48 c7 84 24 98 0c 00 	movq   $0x0,0xc98(%rsp)
  203a4e:	00 00 00 00 00 
  203a53:	48 89 84 24 a0 0c 00 	mov    %rax,0xca0(%rsp)
  203a5a:	00 
  203a5b:	48 c7 84 24 a8 0c 00 	movq   $0x0,0xca8(%rsp)
  203a62:	00 00 00 00 00 
  203a67:	48 89 84 24 b0 0c 00 	mov    %rax,0xcb0(%rsp)
  203a6e:	00 
  203a6f:	48 c7 84 24 b8 0c 00 	movq   $0x0,0xcb8(%rsp)
  203a76:	00 00 00 00 00 
  203a7b:	48 89 84 24 c0 0c 00 	mov    %rax,0xcc0(%rsp)
  203a82:	00 
  203a83:	48 c7 84 24 c8 0c 00 	movq   $0x0,0xcc8(%rsp)
  203a8a:	00 00 00 00 00 
  203a8f:	48 89 84 24 d0 0c 00 	mov    %rax,0xcd0(%rsp)
  203a96:	00 
  203a97:	48 c7 84 24 d8 0c 00 	movq   $0x0,0xcd8(%rsp)
  203a9e:	00 00 00 00 00 
  203aa3:	48 89 84 24 e0 0c 00 	mov    %rax,0xce0(%rsp)
  203aaa:	00 
  203aab:	48 c7 84 24 e8 0c 00 	movq   $0x0,0xce8(%rsp)
  203ab2:	00 00 00 00 00 
  203ab7:	48 89 84 24 f0 0c 00 	mov    %rax,0xcf0(%rsp)
  203abe:	00 
  203abf:	48 c7 84 24 f8 0c 00 	movq   $0x0,0xcf8(%rsp)
  203ac6:	00 00 00 00 00 
  203acb:	48 89 84 24 00 0d 00 	mov    %rax,0xd00(%rsp)
  203ad2:	00 
  203ad3:	48 c7 84 24 08 0d 00 	movq   $0x0,0xd08(%rsp)
  203ada:	00 00 00 00 00 
  203adf:	48 89 84 24 10 0d 00 	mov    %rax,0xd10(%rsp)
  203ae6:	00 
  203ae7:	48 c7 84 24 18 0d 00 	movq   $0x0,0xd18(%rsp)
  203aee:	00 00 00 00 00 
  203af3:	48 89 84 24 20 0d 00 	mov    %rax,0xd20(%rsp)
  203afa:	00 
  203afb:	48 c7 84 24 28 0d 00 	movq   $0x0,0xd28(%rsp)
  203b02:	00 00 00 00 00 
  203b07:	48 89 84 24 30 0d 00 	mov    %rax,0xd30(%rsp)
  203b0e:	00 
  203b0f:	48 c7 84 24 38 0d 00 	movq   $0x0,0xd38(%rsp)
  203b16:	00 00 00 00 00 
  203b1b:	48 89 84 24 40 0d 00 	mov    %rax,0xd40(%rsp)
  203b22:	00 
  203b23:	48 c7 84 24 48 0d 00 	movq   $0x0,0xd48(%rsp)
  203b2a:	00 00 00 00 00 
  203b2f:	48 89 84 24 50 0d 00 	mov    %rax,0xd50(%rsp)
  203b36:	00 
  203b37:	48 c7 84 24 58 0d 00 	movq   $0x0,0xd58(%rsp)
  203b3e:	00 00 00 00 00 
  203b43:	48 89 84 24 60 0d 00 	mov    %rax,0xd60(%rsp)
  203b4a:	00 
  203b4b:	48 c7 84 24 68 0d 00 	movq   $0x0,0xd68(%rsp)
  203b52:	00 00 00 00 00 
  203b57:	48 89 84 24 70 0d 00 	mov    %rax,0xd70(%rsp)
  203b5e:	00 
  203b5f:	48 c7 84 24 78 0d 00 	movq   $0x0,0xd78(%rsp)
  203b66:	00 00 00 00 00 
  203b6b:	48 89 84 24 80 0d 00 	mov    %rax,0xd80(%rsp)
  203b72:	00 
  203b73:	48 c7 84 24 88 0d 00 	movq   $0x0,0xd88(%rsp)
  203b7a:	00 00 00 00 00 
  203b7f:	48 89 84 24 90 0d 00 	mov    %rax,0xd90(%rsp)
  203b86:	00 
  203b87:	48 c7 84 24 98 0d 00 	movq   $0x0,0xd98(%rsp)
  203b8e:	00 00 00 00 00 
  203b93:	48 89 84 24 a0 0d 00 	mov    %rax,0xda0(%rsp)
  203b9a:	00 
  203b9b:	48 c7 84 24 a8 0d 00 	movq   $0x0,0xda8(%rsp)
  203ba2:	00 00 00 00 00 
  203ba7:	48 89 84 24 b0 0d 00 	mov    %rax,0xdb0(%rsp)
  203bae:	00 
  203baf:	48 c7 84 24 b8 0d 00 	movq   $0x0,0xdb8(%rsp)
  203bb6:	00 00 00 00 00 
  203bbb:	48 89 84 24 c0 0d 00 	mov    %rax,0xdc0(%rsp)
  203bc2:	00 
  203bc3:	48 c7 84 24 c8 0d 00 	movq   $0x0,0xdc8(%rsp)
  203bca:	00 00 00 00 00 
  203bcf:	48 89 84 24 d0 0d 00 	mov    %rax,0xdd0(%rsp)
  203bd6:	00 
  203bd7:	48 c7 84 24 d8 0d 00 	movq   $0x0,0xdd8(%rsp)
  203bde:	00 00 00 00 00 
  203be3:	48 89 84 24 e0 0d 00 	mov    %rax,0xde0(%rsp)
  203bea:	00 
  203beb:	48 c7 84 24 e8 0d 00 	movq   $0x0,0xde8(%rsp)
  203bf2:	00 00 00 00 00 
  203bf7:	48 89 84 24 f0 0d 00 	mov    %rax,0xdf0(%rsp)
  203bfe:	00 
  203bff:	48 c7 84 24 f8 0d 00 	movq   $0x0,0xdf8(%rsp)
  203c06:	00 00 00 00 00 
  203c0b:	48 89 84 24 00 0e 00 	mov    %rax,0xe00(%rsp)
  203c12:	00 
  203c13:	48 c7 84 24 08 0e 00 	movq   $0x0,0xe08(%rsp)
  203c1a:	00 00 00 00 00 
  203c1f:	48 89 84 24 10 0e 00 	mov    %rax,0xe10(%rsp)
  203c26:	00 
  203c27:	48 c7 84 24 18 0e 00 	movq   $0x0,0xe18(%rsp)
  203c2e:	00 00 00 00 00 
  203c33:	48 89 84 24 20 0e 00 	mov    %rax,0xe20(%rsp)
  203c3a:	00 
  203c3b:	48 c7 84 24 28 0e 00 	movq   $0x0,0xe28(%rsp)
  203c42:	00 00 00 00 00 
  203c47:	48 89 84 24 30 0e 00 	mov    %rax,0xe30(%rsp)
  203c4e:	00 
  203c4f:	48 c7 84 24 38 0e 00 	movq   $0x0,0xe38(%rsp)
  203c56:	00 00 00 00 00 
  203c5b:	48 89 84 24 40 0e 00 	mov    %rax,0xe40(%rsp)
  203c62:	00 
  203c63:	48 c7 84 24 48 0e 00 	movq   $0x0,0xe48(%rsp)
  203c6a:	00 00 00 00 00 
  203c6f:	48 89 84 24 50 0e 00 	mov    %rax,0xe50(%rsp)
  203c76:	00 
  203c77:	48 c7 84 24 58 0e 00 	movq   $0x0,0xe58(%rsp)
  203c7e:	00 00 00 00 00 
  203c83:	48 89 84 24 60 0e 00 	mov    %rax,0xe60(%rsp)
  203c8a:	00 
  203c8b:	48 c7 84 24 68 0e 00 	movq   $0x0,0xe68(%rsp)
  203c92:	00 00 00 00 00 
  203c97:	48 89 84 24 70 0e 00 	mov    %rax,0xe70(%rsp)
  203c9e:	00 
  203c9f:	48 c7 84 24 78 0e 00 	movq   $0x0,0xe78(%rsp)
  203ca6:	00 00 00 00 00 
  203cab:	48 89 84 24 80 0e 00 	mov    %rax,0xe80(%rsp)
  203cb2:	00 
  203cb3:	48 c7 84 24 88 0e 00 	movq   $0x0,0xe88(%rsp)
  203cba:	00 00 00 00 00 
  203cbf:	48 89 84 24 90 0e 00 	mov    %rax,0xe90(%rsp)
  203cc6:	00 
  203cc7:	48 c7 84 24 98 0e 00 	movq   $0x0,0xe98(%rsp)
  203cce:	00 00 00 00 00 
  203cd3:	48 89 84 24 a0 0e 00 	mov    %rax,0xea0(%rsp)
  203cda:	00 
  203cdb:	48 c7 84 24 a8 0e 00 	movq   $0x0,0xea8(%rsp)
  203ce2:	00 00 00 00 00 
  203ce7:	48 89 84 24 b0 0e 00 	mov    %rax,0xeb0(%rsp)
  203cee:	00 
  203cef:	48 c7 84 24 b8 0e 00 	movq   $0x0,0xeb8(%rsp)
  203cf6:	00 00 00 00 00 
  203cfb:	48 89 84 24 c0 0e 00 	mov    %rax,0xec0(%rsp)
  203d02:	00 
  203d03:	48 c7 84 24 c8 0e 00 	movq   $0x0,0xec8(%rsp)
  203d0a:	00 00 00 00 00 
  203d0f:	48 89 84 24 d0 0e 00 	mov    %rax,0xed0(%rsp)
  203d16:	00 
  203d17:	48 c7 84 24 d8 0e 00 	movq   $0x0,0xed8(%rsp)
  203d1e:	00 00 00 00 00 
  203d23:	48 89 84 24 e0 0e 00 	mov    %rax,0xee0(%rsp)
  203d2a:	00 
  203d2b:	48 c7 84 24 e8 0e 00 	movq   $0x0,0xee8(%rsp)
  203d32:	00 00 00 00 00 
  203d37:	48 89 84 24 f0 0e 00 	mov    %rax,0xef0(%rsp)
  203d3e:	00 
  203d3f:	48 c7 84 24 f8 0e 00 	movq   $0x0,0xef8(%rsp)
  203d46:	00 00 00 00 00 
  203d4b:	48 89 84 24 00 0f 00 	mov    %rax,0xf00(%rsp)
  203d52:	00 
  203d53:	48 c7 84 24 08 0f 00 	movq   $0x0,0xf08(%rsp)
  203d5a:	00 00 00 00 00 
  203d5f:	48 89 84 24 10 0f 00 	mov    %rax,0xf10(%rsp)
  203d66:	00 
  203d67:	48 c7 84 24 18 0f 00 	movq   $0x0,0xf18(%rsp)
  203d6e:	00 00 00 00 00 
  203d73:	48 89 84 24 20 0f 00 	mov    %rax,0xf20(%rsp)
  203d7a:	00 
  203d7b:	48 c7 84 24 28 0f 00 	movq   $0x0,0xf28(%rsp)
  203d82:	00 00 00 00 00 
  203d87:	48 89 84 24 30 0f 00 	mov    %rax,0xf30(%rsp)
  203d8e:	00 
  203d8f:	48 c7 84 24 38 0f 00 	movq   $0x0,0xf38(%rsp)
  203d96:	00 00 00 00 00 
  203d9b:	48 89 84 24 40 0f 00 	mov    %rax,0xf40(%rsp)
  203da2:	00 
  203da3:	48 c7 84 24 48 0f 00 	movq   $0x0,0xf48(%rsp)
  203daa:	00 00 00 00 00 
  203daf:	48 89 84 24 50 0f 00 	mov    %rax,0xf50(%rsp)
  203db6:	00 
  203db7:	48 c7 84 24 58 0f 00 	movq   $0x0,0xf58(%rsp)
  203dbe:	00 00 00 00 00 
  203dc3:	48 89 84 24 60 0f 00 	mov    %rax,0xf60(%rsp)
  203dca:	00 
  203dcb:	48 c7 84 24 68 0f 00 	movq   $0x0,0xf68(%rsp)
  203dd2:	00 00 00 00 00 
  203dd7:	48 89 84 24 70 0f 00 	mov    %rax,0xf70(%rsp)
  203dde:	00 
  203ddf:	48 c7 84 24 78 0f 00 	movq   $0x0,0xf78(%rsp)
  203de6:	00 00 00 00 00 
  203deb:	48 89 84 24 80 0f 00 	mov    %rax,0xf80(%rsp)
  203df2:	00 
  203df3:	48 c7 84 24 88 0f 00 	movq   $0x0,0xf88(%rsp)
  203dfa:	00 00 00 00 00 
  203dff:	48 89 84 24 90 0f 00 	mov    %rax,0xf90(%rsp)
  203e06:	00 
  203e07:	48 c7 84 24 98 0f 00 	movq   $0x0,0xf98(%rsp)
  203e0e:	00 00 00 00 00 
  203e13:	48 89 84 24 a0 0f 00 	mov    %rax,0xfa0(%rsp)
  203e1a:	00 
  203e1b:	48 c7 84 24 a8 0f 00 	movq   $0x0,0xfa8(%rsp)
  203e22:	00 00 00 00 00 
  203e27:	48 89 84 24 b0 0f 00 	mov    %rax,0xfb0(%rsp)
  203e2e:	00 
  203e2f:	48 c7 84 24 b8 0f 00 	movq   $0x0,0xfb8(%rsp)
  203e36:	00 00 00 00 00 
  203e3b:	48 89 84 24 c0 0f 00 	mov    %rax,0xfc0(%rsp)
  203e42:	00 
  203e43:	48 c7 84 24 c8 0f 00 	movq   $0x0,0xfc8(%rsp)
  203e4a:	00 00 00 00 00 
  203e4f:	48 89 84 24 d0 0f 00 	mov    %rax,0xfd0(%rsp)
  203e56:	00 
  203e57:	48 c7 84 24 d8 0f 00 	movq   $0x0,0xfd8(%rsp)
  203e5e:	00 00 00 00 00 
  203e63:	48 89 84 24 e0 0f 00 	mov    %rax,0xfe0(%rsp)
  203e6a:	00 
  203e6b:	48 c7 84 24 e8 0f 00 	movq   $0x0,0xfe8(%rsp)
  203e72:	00 00 00 00 00 
  203e77:	48 89 84 24 f0 0f 00 	mov    %rax,0xff0(%rsp)
  203e7e:	00 
  203e7f:	48 c7 84 24 f8 0f 00 	movq   $0x0,0xff8(%rsp)
  203e86:	00 00 00 00 00 
  203e8b:	48 89 84 24 00 10 00 	mov    %rax,0x1000(%rsp)
  203e92:	00 
  203e93:	48 c7 84 24 08 10 00 	movq   $0x0,0x1008(%rsp)
  203e9a:	00 00 00 00 00 
  203e9f:	b8 10 27 20 00       	mov    $0x202710,%eax
  203ea4:	66 89 84 24 10 02 00 	mov    %ax,0x210(%rsp)
  203eab:	00 
  203eac:	b9 10 27 20 00       	mov    $0x202710,%ecx
  203eb1:	48 c1 e9 10          	shr    $0x10,%rcx
  203eb5:	66 89 8c 24 16 02 00 	mov    %cx,0x216(%rsp)
  203ebc:	00 
  203ebd:	48 c1 e8 20          	shr    $0x20,%rax
  203ec1:	89 84 24 18 02 00 00 	mov    %eax,0x218(%rsp)
  203ec8:	8c c8                	mov    %cs,%eax
  203eca:	66 89 84 24 12 02 00 	mov    %ax,0x212(%rsp)
  203ed1:	00 
  203ed2:	48 8d bc 24 14 02 00 	lea    0x214(%rsp),%rdi
  203ed9:	00 
  203eda:	be 0f 00 00 00       	mov    $0xf,%esi
  203edf:	ba 01 00 00 00       	mov    $0x1,%edx
  203ee4:	e8 97 06 00 00       	callq  204580 <_ZN43_$LT$i16$u20$as$u20$bit_field..BitField$GT$7set_bit17h8d92c366f20f8242E>
  203ee9:	4c 8d b4 24 10 10 00 	lea    0x1010(%rsp),%r14
  203ef0:	00 
  203ef1:	48 8d 74 24 10       	lea    0x10(%rsp),%rsi
  203ef6:	ba 00 10 00 00       	mov    $0x1000,%edx
  203efb:	4c 89 f7             	mov    %r14,%rdi
  203efe:	e8 9d 2b 00 00       	callq  206aa0 <memcpy>
  203f03:	48 c7 43 08 00 00 00 	movq   $0x0,0x8(%rbx)
  203f0a:	00 
  203f0b:	48 c7 03 01 00 00 00 	movq   $0x1,(%rbx)
  203f12:	48 8d 7b 10          	lea    0x10(%rbx),%rdi
  203f16:	ba 00 10 00 00       	mov    $0x1000,%edx
  203f1b:	4c 89 f6             	mov    %r14,%rsi
  203f1e:	e8 7d 2b 00 00       	callq  206aa0 <memcpy>
  203f23:	c6 44 24 08 00       	movb   $0x0,0x8(%rsp)
  203f28:	b8 02 00 00 00       	mov    $0x2,%eax
  203f2d:	48 87 83 10 10 00 00 	xchg   %rax,0x1010(%rbx)
  203f34:	48 89 e7             	mov    %rsp,%rdi
  203f37:	e8 84 06 00 00       	callq  2045c0 <_ZN60_$LT$spin..once..Finish$u20$as$u20$core..ops..drop..Drop$GT$4drop17hb2f36b9470b50a54E>
  203f3c:	eb 11                	jmp    203f4f <_ZN4spin4once13Once$LT$T$GT$9call_once17h83dd8a5f5f560670E+0x14cf>
  203f3e:	ff 24 c5 d0 01 20 00 	jmpq   *0x2001d0(,%rax,8)
  203f45:	48 8b 01             	mov    (%rcx),%rax
  203f48:	ff 24 c5 d0 01 20 00 	jmpq   *0x2001d0(,%rax,8)
  203f4f:	48 83 c3 10          	add    $0x10,%rbx
  203f53:	48 89 d8             	mov    %rbx,%rax
  203f56:	48 81 c4 18 20 00 00 	add    $0x2018,%rsp
  203f5d:	5b                   	pop    %rbx
  203f5e:	41 5e                	pop    %r14
  203f60:	c3                   	retq   
  203f61:	bf b0 02 20 00       	mov    $0x2002b0,%edi
  203f66:	be 28 00 00 00       	mov    $0x28,%esi
  203f6b:	ba d8 02 20 00       	mov    $0x2002d8,%edx
  203f70:	e8 db 13 00 00       	callq  205350 <_ZN4core9panicking5panic17h0d5eac47308c2a59E>
  203f75:	0f 0b                	ud2    
  203f77:	bf 30 02 20 00       	mov    $0x200230,%edi
  203f7c:	be 11 00 00 00       	mov    $0x11,%esi
  203f81:	ba 98 02 20 00       	mov    $0x200298,%edx
  203f86:	e8 c5 13 00 00       	callq  205350 <_ZN4core9panicking5panic17h0d5eac47308c2a59E>
  203f8b:	0f 0b                	ud2    
  203f8d:	cc                   	int3   
  203f8e:	cc                   	int3   
  203f8f:	cc                   	int3   

0000000000203f90 <_ZN4spin4once13Once$LT$T$GT$9call_once17hfd2579c1b627e40aE>:
  203f90:	53                   	push   %rbx
  203f91:	48 81 ec e0 00 00 00 	sub    $0xe0,%rsp
  203f98:	48 89 fb             	mov    %rdi,%rbx
  203f9b:	48 8b 07             	mov    (%rdi),%rax
  203f9e:	48 85 c0             	test   %rax,%rax
  203fa1:	0f 85 ea 00 00 00    	jne    204091 <_ZN4spin4once13Once$LT$T$GT$9call_once17hfd2579c1b627e40aE+0x101>
  203fa7:	b9 01 00 00 00       	mov    $0x1,%ecx
  203fac:	31 c0                	xor    %eax,%eax
  203fae:	f0 48 0f b1 0b       	lock cmpxchg %rcx,(%rbx)
  203fb3:	0f 85 d8 00 00 00    	jne    204091 <_ZN4spin4once13Once$LT$T$GT$9call_once17hfd2579c1b627e40aE+0x101>
  203fb9:	48 89 9c 24 d0 00 00 	mov    %rbx,0xd0(%rsp)
  203fc0:	00 
  203fc1:	c6 84 24 d8 00 00 00 	movb   $0x1,0xd8(%rsp)
  203fc8:	01 
  203fc9:	48 c7 44 24 68 00 00 	movq   $0x0,0x68(%rsp)
  203fd0:	00 00 
  203fd2:	48 c7 44 24 70 00 00 	movq   $0x0,0x70(%rsp)
  203fd9:	00 00 
  203fdb:	48 c7 44 24 78 00 00 	movq   $0x0,0x78(%rsp)
  203fe2:	00 00 
  203fe4:	48 c7 84 24 80 00 00 	movq   $0x0,0x80(%rsp)
  203feb:	00 00 00 00 00 
  203ff0:	c7 84 24 88 00 00 00 	movl   $0x0,0x88(%rsp)
  203ff7:	00 00 00 00 
  203ffb:	48 c7 84 24 90 00 00 	movq   $0x0,0x90(%rsp)
  204002:	00 00 00 00 00 
  204007:	48 c7 84 24 98 00 00 	movq   $0x0,0x98(%rsp)
  20400e:	00 00 00 00 00 
  204013:	48 c7 84 24 a0 00 00 	movq   $0x0,0xa0(%rsp)
  20401a:	00 00 00 00 00 
  20401f:	48 c7 84 24 a8 00 00 	movq   $0x0,0xa8(%rsp)
  204026:	00 00 00 00 00 
  20402b:	48 c7 84 24 b0 00 00 	movq   $0x0,0xb0(%rsp)
  204032:	00 00 00 00 00 
  204037:	48 c7 84 24 b8 00 00 	movq   $0x0,0xb8(%rsp)
  20403e:	00 00 00 00 00 
  204043:	48 c7 84 24 c0 00 00 	movq   $0x0,0xc0(%rsp)
  20404a:	00 00 00 00 00 
  20404f:	c7 84 24 c8 00 00 00 	movl   $0x0,0xc8(%rsp)
  204056:	00 00 00 00 
  20405a:	48 c7 04 24 00 8b 20 	movq   $0x208b00,(%rsp)
  204061:	00 
  204062:	48 89 e7             	mov    %rsp,%rdi
  204065:	be 2f 00 00 00       	mov    $0x2f,%esi
  20406a:	ba 40 00 00 00       	mov    $0x40,%edx
  20406f:	e8 0c 04 00 00       	callq  204480 <_ZN43_$LT$u64$u20$as$u20$bit_field..BitField$GT$8get_bits17hc8035016be2c1285E>
  204074:	48 3d ff ff 01 00    	cmp    $0x1ffff,%rax
  20407a:	74 0f                	je     20408b <_ZN4spin4once13Once$LT$T$GT$9call_once17hfd2579c1b627e40aE+0xfb>
  20407c:	48 83 f8 01          	cmp    $0x1,%rax
  204080:	74 36                	je     2040b8 <_ZN4spin4once13Once$LT$T$GT$9call_once17hfd2579c1b627e40aE+0x128>
  204082:	48 85 c0             	test   %rax,%rax
  204085:	0f 85 d4 01 00 00    	jne    20425f <_ZN4spin4once13Once$LT$T$GT$9call_once17hfd2579c1b627e40aE+0x2cf>
  20408b:	48 8b 04 24          	mov    (%rsp),%rax
  20408f:	eb 33                	jmp    2040c4 <_ZN4spin4once13Once$LT$T$GT$9call_once17hfd2579c1b627e40aE+0x134>
  204091:	ff 24 c5 f0 01 20 00 	jmpq   *0x2001f0(,%rax,8)
  204098:	48 8b 03             	mov    (%rbx),%rax
  20409b:	ff 24 c5 f0 01 20 00 	jmpq   *0x2001f0(,%rax,8)
  2040a2:	bf b0 02 20 00       	mov    $0x2002b0,%edi
  2040a7:	be 28 00 00 00       	mov    $0x28,%esi
  2040ac:	ba d8 02 20 00       	mov    $0x2002d8,%edx
  2040b1:	e8 9a 12 00 00       	callq  205350 <_ZN4core9panicking5panic17h0d5eac47308c2a59E>
  2040b6:	0f 0b                	ud2    
  2040b8:	48 8b 04 24          	mov    (%rsp),%rax
  2040bc:	48 c1 e0 10          	shl    $0x10,%rax
  2040c0:	48 c1 f8 10          	sar    $0x10,%rax
  2040c4:	48 05 00 50 00 00    	add    $0x5000,%rax
  2040ca:	48 89 04 24          	mov    %rax,(%rsp)
  2040ce:	48 89 e7             	mov    %rsp,%rdi
  2040d1:	be 2f 00 00 00       	mov    $0x2f,%esi
  2040d6:	ba 40 00 00 00       	mov    $0x40,%edx
  2040db:	e8 a0 03 00 00       	callq  204480 <_ZN43_$LT$u64$u20$as$u20$bit_field..BitField$GT$8get_bits17hc8035016be2c1285E>
  2040e0:	48 3d ff ff 01 00    	cmp    $0x1ffff,%rax
  2040e6:	74 0f                	je     2040f7 <_ZN4spin4once13Once$LT$T$GT$9call_once17hfd2579c1b627e40aE+0x167>
  2040e8:	48 83 f8 01          	cmp    $0x1,%rax
  2040ec:	74 0f                	je     2040fd <_ZN4spin4once13Once$LT$T$GT$9call_once17hfd2579c1b627e40aE+0x16d>
  2040ee:	48 85 c0             	test   %rax,%rax
  2040f1:	0f 85 68 01 00 00    	jne    20425f <_ZN4spin4once13Once$LT$T$GT$9call_once17hfd2579c1b627e40aE+0x2cf>
  2040f7:	48 8b 04 24          	mov    (%rsp),%rax
  2040fb:	eb 0c                	jmp    204109 <_ZN4spin4once13Once$LT$T$GT$9call_once17hfd2579c1b627e40aE+0x179>
  2040fd:	48 8b 04 24          	mov    (%rsp),%rax
  204101:	48 c1 e0 10          	shl    $0x10,%rax
  204105:	48 c1 f8 10          	sar    $0x10,%rax
  204109:	48 8b 4c 24 68       	mov    0x68(%rsp),%rcx
  20410e:	48 8b 54 24 70       	mov    0x70(%rsp),%rdx
  204113:	48 89 4c 24 40       	mov    %rcx,0x40(%rsp)
  204118:	48 89 54 24 48       	mov    %rdx,0x48(%rsp)
  20411d:	48 8b 4c 24 78       	mov    0x78(%rsp),%rcx
  204122:	48 89 4c 24 50       	mov    %rcx,0x50(%rsp)
  204127:	48 8b 8c 24 80 00 00 	mov    0x80(%rsp),%rcx
  20412e:	00 
  20412f:	48 89 4c 24 58       	mov    %rcx,0x58(%rsp)
  204134:	8b 8c 24 88 00 00 00 	mov    0x88(%rsp),%ecx
  20413b:	89 4c 24 60          	mov    %ecx,0x60(%rsp)
  20413f:	48 8b 8c 24 90 00 00 	mov    0x90(%rsp),%rcx
  204146:	00 
  204147:	48 8b 94 24 98 00 00 	mov    0x98(%rsp),%rdx
  20414e:	00 
  20414f:	48 89 0c 24          	mov    %rcx,(%rsp)
  204153:	48 89 54 24 08       	mov    %rdx,0x8(%rsp)
  204158:	48 8b 8c 24 a0 00 00 	mov    0xa0(%rsp),%rcx
  20415f:	00 
  204160:	48 89 4c 24 10       	mov    %rcx,0x10(%rsp)
  204165:	48 8b 8c 24 a8 00 00 	mov    0xa8(%rsp),%rcx
  20416c:	00 
  20416d:	48 89 4c 24 18       	mov    %rcx,0x18(%rsp)
  204172:	48 8b 8c 24 b0 00 00 	mov    0xb0(%rsp),%rcx
  204179:	00 
  20417a:	48 89 4c 24 20       	mov    %rcx,0x20(%rsp)
  20417f:	48 8b 8c 24 b8 00 00 	mov    0xb8(%rsp),%rcx
  204186:	00 
  204187:	48 89 4c 24 28       	mov    %rcx,0x28(%rsp)
  20418c:	48 8b 8c 24 c0 00 00 	mov    0xc0(%rsp),%rcx
  204193:	00 
  204194:	48 89 4c 24 30       	mov    %rcx,0x30(%rsp)
  204199:	8b 8c 24 c8 00 00 00 	mov    0xc8(%rsp),%ecx
  2041a0:	89 4c 24 38          	mov    %ecx,0x38(%rsp)
  2041a4:	c6 43 08 01          	movb   $0x1,0x8(%rbx)
  2041a8:	48 8b 4c 24 40       	mov    0x40(%rsp),%rcx
  2041ad:	48 8b 54 24 48       	mov    0x48(%rsp),%rdx
  2041b2:	48 89 4b 09          	mov    %rcx,0x9(%rbx)
  2041b6:	48 89 53 11          	mov    %rdx,0x11(%rbx)
  2041ba:	48 8b 4c 24 50       	mov    0x50(%rsp),%rcx
  2041bf:	48 89 4b 19          	mov    %rcx,0x19(%rbx)
  2041c3:	48 8b 4c 24 58       	mov    0x58(%rsp),%rcx
  2041c8:	48 89 4b 21          	mov    %rcx,0x21(%rbx)
  2041cc:	8b 4c 24 60          	mov    0x60(%rsp),%ecx
  2041d0:	89 4b 29             	mov    %ecx,0x29(%rbx)
  2041d3:	48 89 43 2d          	mov    %rax,0x2d(%rbx)
  2041d7:	8b 44 24 38          	mov    0x38(%rsp),%eax
  2041db:	89 43 6d             	mov    %eax,0x6d(%rbx)
  2041de:	48 8b 44 24 30       	mov    0x30(%rsp),%rax
  2041e3:	48 89 43 65          	mov    %rax,0x65(%rbx)
  2041e7:	48 8b 44 24 28       	mov    0x28(%rsp),%rax
  2041ec:	48 89 43 5d          	mov    %rax,0x5d(%rbx)
  2041f0:	48 8b 44 24 20       	mov    0x20(%rsp),%rax
  2041f5:	48 89 43 55          	mov    %rax,0x55(%rbx)
  2041f9:	48 8b 44 24 18       	mov    0x18(%rsp),%rax
  2041fe:	48 89 43 4d          	mov    %rax,0x4d(%rbx)
  204202:	48 8b 44 24 10       	mov    0x10(%rsp),%rax
  204207:	48 89 43 45          	mov    %rax,0x45(%rbx)
  20420b:	48 8b 04 24          	mov    (%rsp),%rax
  20420f:	48 8b 4c 24 08       	mov    0x8(%rsp),%rcx
  204214:	48 89 4b 3d          	mov    %rcx,0x3d(%rbx)
  204218:	48 89 43 35          	mov    %rax,0x35(%rbx)
  20421c:	c6 84 24 d8 00 00 00 	movb   $0x0,0xd8(%rsp)
  204223:	00 
  204224:	b8 02 00 00 00       	mov    $0x2,%eax
  204229:	48 87 03             	xchg   %rax,(%rbx)
  20422c:	48 8d bc 24 d0 00 00 	lea    0xd0(%rsp),%rdi
  204233:	00 
  204234:	e8 87 03 00 00       	callq  2045c0 <_ZN60_$LT$spin..once..Finish$u20$as$u20$core..ops..drop..Drop$GT$4drop17hb2f36b9470b50a54E>
  204239:	48 83 c3 09          	add    $0x9,%rbx
  20423d:	48 89 d8             	mov    %rbx,%rax
  204240:	48 81 c4 e0 00 00 00 	add    $0xe0,%rsp
  204247:	5b                   	pop    %rbx
  204248:	c3                   	retq   
  204249:	bf 30 02 20 00       	mov    $0x200230,%edi
  20424e:	be 11 00 00 00       	mov    $0x11,%esi
  204253:	ba 98 02 20 00       	mov    $0x200298,%edx
  204258:	e8 f3 10 00 00       	callq  205350 <_ZN4core9panicking5panic17h0d5eac47308c2a59E>
  20425d:	0f 0b                	ud2    
  20425f:	48 89 04 24          	mov    %rax,(%rsp)
  204263:	48 89 e2             	mov    %rsp,%rdx
  204266:	bf f0 02 20 00       	mov    $0x2002f0,%edi
  20426b:	be 4a 00 00 00       	mov    $0x4a,%esi
  204270:	b9 10 02 20 00       	mov    $0x200210,%ecx
  204275:	41 b8 98 03 20 00    	mov    $0x200398,%r8d
  20427b:	e8 d0 11 00 00       	callq  205450 <_ZN4core6result13unwrap_failed17h333665f0a8190f14E>
  204280:	0f 0b                	ud2    
  204282:	cc                   	int3   
  204283:	cc                   	int3   
  204284:	cc                   	int3   
  204285:	cc                   	int3   
  204286:	cc                   	int3   
  204287:	cc                   	int3   
  204288:	cc                   	int3   
  204289:	cc                   	int3   
  20428a:	cc                   	int3   
  20428b:	cc                   	int3   
  20428c:	cc                   	int3   
  20428d:	cc                   	int3   
  20428e:	cc                   	int3   
  20428f:	cc                   	int3   

0000000000204290 <rust_begin_unwind>:
  204290:	eb fe                	jmp    204290 <rust_begin_unwind>
  204292:	cc                   	int3   
  204293:	cc                   	int3   
  204294:	cc                   	int3   
  204295:	cc                   	int3   
  204296:	cc                   	int3   
  204297:	cc                   	int3   
  204298:	cc                   	int3   
  204299:	cc                   	int3   
  20429a:	cc                   	int3   
  20429b:	cc                   	int3   
  20429c:	cc                   	int3   
  20429d:	cc                   	int3   
  20429e:	cc                   	int3   
  20429f:	cc                   	int3   

00000000002042a0 <_start>:
  2042a0:	48 81 ff 00 01 00 00 	cmp    $0x100,%rdi
  2042a7:	0f 84 d3 00 00 00    	je     204380 <_start+0xe0>
  2042ad:	53                   	push   %rbx
  2042ae:	48 83 ec 10          	sub    $0x10,%rsp
  2042b2:	49 89 f8             	mov    %rdi,%r8
  2042b5:	48 8b 14 25 ff ff ff 	mov    0xffffffffffffffff,%rdx
  2042bc:	ff 
  2042bd:	bf 78 db 20 00       	mov    $0x20db78,%edi
  2042c2:	e8 e9 e5 ff ff       	callq  2028b0 <_ZN4spin4once13Once$LT$T$GT$9call_once17h4c3348b168eb1995E>
  2042c7:	48 89 c7             	mov    %rax,%rdi
  2042ca:	e8 c1 00 00 00       	callq  204390 <_ZN6x86_6410structures3gdt21GlobalDescriptorTable7pointer17h6ba9a7d43e3613bfE>
  2042cf:	48 89 04 24          	mov    %rax,(%rsp)
  2042d3:	66 89 54 24 08       	mov    %dx,0x8(%rsp)
  2042d8:	48 89 e3             	mov    %rsp,%rbx
  2042db:	0f 01 13             	lgdt   (%rbx)
  2042de:	bf 78 db 20 00       	mov    $0x20db78,%edi
  2042e3:	e8 c8 e5 ff ff       	callq  2028b0 <_ZN4spin4once13Once$LT$T$GT$9call_once17h4c3348b168eb1995E>
  2042e8:	0f b7 40 48          	movzwl 0x48(%rax),%eax
  2042ec:	50                   	push   %rax
  2042ed:	48 8d 05 03 00 00 00 	lea    0x3(%rip),%rax        # 2042f7 <_start+0x57>
  2042f4:	50                   	push   %rax
  2042f5:	48 cb                	lretq  
  2042f7:	bf 78 db 20 00       	mov    $0x20db78,%edi
  2042fc:	e8 af e5 ff ff       	callq  2028b0 <_ZN4spin4once13Once$LT$T$GT$9call_once17h4c3348b168eb1995E>
  204301:	0f b7 40 4a          	movzwl 0x4a(%rax),%eax
  204305:	0f 00 d8             	ltr    %ax
  204308:	bf e0 7a 20 00       	mov    $0x207ae0,%edi
  20430d:	e8 6e e7 ff ff       	callq  202a80 <_ZN4spin4once13Once$LT$T$GT$9call_once17h83dd8a5f5f560670E>
  204312:	48 89 c7             	mov    %rax,%rdi
  204315:	e8 e6 00 00 00       	callq  204400 <_ZN6x86_6410structures3idt24InterruptDescriptorTable7pointer17h69f08150941ce297E>
  20431a:	48 89 04 24          	mov    %rax,(%rsp)
  20431e:	66 89 54 24 08       	mov    %dx,0x8(%rsp)
  204323:	0f 01 1b             	lidt   (%rbx)
  204326:	bb 01 00 00 00       	mov    $0x1,%ebx
  20432b:	f0 48 0f c1 1d 8c 37 	lock xadd %rbx,0x378c(%rip)        # 207ac0 <_ZN6kernel3pic4PICS17h1b4f7132a142f9c5E.llvm.17665651154821558992>
  204332:	00 00 
  204334:	66 2e 0f 1f 84 00 00 	nopw   %cs:0x0(%rax,%rax,1)
  20433b:	00 00 00 
  20433e:	66 90                	xchg   %ax,%ax
  204340:	48 8b 05 81 37 00 00 	mov    0x3781(%rip),%rax        # 207ac8 <_ZN6kernel3pic4PICS17h1b4f7132a142f9c5E.llvm.17665651154821558992+0x8>
  204347:	48 39 d8             	cmp    %rbx,%rax
  20434a:	0f 85 f0 ff ff ff    	jne    204340 <_start+0xa0>
  204350:	bf d0 7a 20 00       	mov    $0x207ad0,%edi
  204355:	e8 86 02 00 00       	callq  2045e0 <_ZN14pic8259_simple11ChainedPics10initialize17h1c2b6c86ede0df3cE>
  20435a:	48 ff c3             	inc    %rbx
  20435d:	48 89 1d 64 37 00 00 	mov    %rbx,0x3764(%rip)        # 207ac8 <_ZN6kernel3pic4PICS17h1b4f7132a142f9c5E.llvm.17665651154821558992+0x8>
  204364:	fb                   	sti    
  204365:	e8 06 e4 ff ff       	callq  202770 <_ZN6kernel7drivers6serial9safe_lock17h52e2b83c2945ec3bE>
  20436a:	b8 d2 04 00 00       	mov    $0x4d2,%eax
  20436f:	48 83 c4 10          	add    $0x10,%rsp
  204373:	5b                   	pop    %rbx
  204374:	c3                   	retq   
  204375:	66 2e 0f 1f 84 00 00 	nopw   %cs:0x0(%rax,%rax,1)
  20437c:	00 00 00 
  20437f:	90                   	nop
  204380:	eb fe                	jmp    204380 <_start+0xe0>
  204382:	cc                   	int3   
  204383:	cc                   	int3   
  204384:	cc                   	int3   
  204385:	cc                   	int3   
  204386:	cc                   	int3   
  204387:	cc                   	int3   
  204388:	cc                   	int3   
  204389:	cc                   	int3   
  20438a:	cc                   	int3   
  20438b:	cc                   	int3   
  20438c:	cc                   	int3   
  20438d:	cc                   	int3   
  20438e:	cc                   	int3   
  20438f:	cc                   	int3   

0000000000204390 <_ZN6x86_6410structures3gdt21GlobalDescriptorTable7pointer17h6ba9a7d43e3613bfE>:
  204390:	8b 47 40             	mov    0x40(%rdi),%eax
  204393:	8d 04 c5 ff ff ff ff 	lea    -0x1(,%rax,8),%eax
  20439a:	48 89 fa             	mov    %rdi,%rdx
  20439d:	48 c1 ea 30          	shr    $0x30,%rdx
  2043a1:	48 c1 e7 10          	shl    $0x10,%rdi
  2043a5:	0f b7 c0             	movzwl %ax,%eax
  2043a8:	48 09 f8             	or     %rdi,%rax
  2043ab:	c3                   	retq   
  2043ac:	cc                   	int3   
  2043ad:	cc                   	int3   
  2043ae:	cc                   	int3   
  2043af:	cc                   	int3   

00000000002043b0 <_ZN42_$LT$$RF$T$u20$as$u20$core..fmt..Debug$GT$3fmt17hdaa59835a6fef181E>:
  2043b0:	41 56                	push   %r14
  2043b2:	53                   	push   %rbx
  2043b3:	50                   	push   %rax
  2043b4:	48 89 f3             	mov    %rsi,%rbx
  2043b7:	4c 8b 37             	mov    (%rdi),%r14
  2043ba:	48 89 f7             	mov    %rsi,%rdi
  2043bd:	e8 8e 1c 00 00       	callq  206050 <_ZN4core3fmt9Formatter15debug_lower_hex17h9e136e898ec3b523E>
  2043c2:	84 c0                	test   %al,%al
  2043c4:	74 12                	je     2043d8 <_ZN42_$LT$$RF$T$u20$as$u20$core..fmt..Debug$GT$3fmt17hdaa59835a6fef181E+0x28>
  2043c6:	4c 89 f7             	mov    %r14,%rdi
  2043c9:	48 89 de             	mov    %rbx,%rsi
  2043cc:	48 83 c4 08          	add    $0x8,%rsp
  2043d0:	5b                   	pop    %rbx
  2043d1:	41 5e                	pop    %r14
  2043d3:	e9 98 03 00 00       	jmpq   204770 <_ZN4core3fmt3num53_$LT$impl$u20$core..fmt..LowerHex$u20$for$u20$i64$GT$3fmt17hacecc58870521670E>
  2043d8:	48 89 df             	mov    %rbx,%rdi
  2043db:	e8 80 1c 00 00       	callq  206060 <_ZN4core3fmt9Formatter15debug_upper_hex17h18a7f191c385ba9fE>
  2043e0:	4c 89 f7             	mov    %r14,%rdi
  2043e3:	48 89 de             	mov    %rbx,%rsi
  2043e6:	48 83 c4 08          	add    $0x8,%rsp
  2043ea:	84 c0                	test   %al,%al
  2043ec:	74 08                	je     2043f6 <_ZN42_$LT$$RF$T$u20$as$u20$core..fmt..Debug$GT$3fmt17hdaa59835a6fef181E+0x46>
  2043ee:	5b                   	pop    %rbx
  2043ef:	41 5e                	pop    %r14
  2043f1:	e9 0a 04 00 00       	jmpq   204800 <_ZN4core3fmt3num53_$LT$impl$u20$core..fmt..UpperHex$u20$for$u20$i64$GT$3fmt17hfc111a23073eb076E>
  2043f6:	5b                   	pop    %rbx
  2043f7:	41 5e                	pop    %r14
  2043f9:	e9 d2 10 00 00       	jmpq   2054d0 <_ZN4core3fmt3num3imp52_$LT$impl$u20$core..fmt..Display$u20$for$u20$u64$GT$3fmt17h68e02be05b0464d5E>
  2043fe:	cc                   	int3   
  2043ff:	cc                   	int3   

0000000000204400 <_ZN6x86_6410structures3idt24InterruptDescriptorTable7pointer17h69f08150941ce297E>:
  204400:	48 89 fa             	mov    %rdi,%rdx
  204403:	48 c1 ea 30          	shr    $0x30,%rdx
  204407:	48 c1 e7 10          	shl    $0x10,%rdi
  20440b:	48 8d 87 ff 0f 00 00 	lea    0xfff(%rdi),%rax
  204412:	c3                   	retq   
  204413:	cc                   	int3   
  204414:	cc                   	int3   
  204415:	cc                   	int3   
  204416:	cc                   	int3   
  204417:	cc                   	int3   
  204418:	cc                   	int3   
  204419:	cc                   	int3   
  20441a:	cc                   	int3   
  20441b:	cc                   	int3   
  20441c:	cc                   	int3   
  20441d:	cc                   	int3   
  20441e:	cc                   	int3   
  20441f:	cc                   	int3   

0000000000204420 <_ZN4core3ptr13drop_in_place17hda8daffd98a40848E>:
  204420:	c3                   	retq   
  204421:	cc                   	int3   
  204422:	cc                   	int3   
  204423:	cc                   	int3   
  204424:	cc                   	int3   
  204425:	cc                   	int3   
  204426:	cc                   	int3   
  204427:	cc                   	int3   
  204428:	cc                   	int3   
  204429:	cc                   	int3   
  20442a:	cc                   	int3   
  20442b:	cc                   	int3   
  20442c:	cc                   	int3   
  20442d:	cc                   	int3   
  20442e:	cc                   	int3   
  20442f:	cc                   	int3   

0000000000204430 <_ZN67_$LT$x86_64..addr..VirtAddrNotValid$u20$as$u20$core..fmt..Debug$GT$3fmt17hc9e6ccefc9c0000aE>:
  204430:	41 56                	push   %r14
  204432:	53                   	push   %rbx
  204433:	48 83 ec 28          	sub    $0x28,%rsp
  204437:	48 89 fb             	mov    %rdi,%rbx
  20443a:	4c 8d 74 24 10       	lea    0x10(%rsp),%r14
  20443f:	ba b0 03 20 00       	mov    $0x2003b0,%edx
  204444:	b9 10 00 00 00       	mov    $0x10,%ecx
  204449:	4c 89 f7             	mov    %r14,%rdi
  20444c:	e8 1f 1c 00 00       	callq  206070 <_ZN4core3fmt9Formatter11debug_tuple17h1587f250771d606eE>
  204451:	48 89 5c 24 08       	mov    %rbx,0x8(%rsp)
  204456:	48 8d 74 24 08       	lea    0x8(%rsp),%rsi
  20445b:	ba e0 03 20 00       	mov    $0x2003e0,%edx
  204460:	4c 89 f7             	mov    %r14,%rdi
  204463:	e8 e8 21 00 00       	callq  206650 <_ZN4core3fmt8builders10DebugTuple5field17h33be4a67b9d94913E>
  204468:	4c 89 f7             	mov    %r14,%rdi
  20446b:	e8 30 23 00 00       	callq  2067a0 <_ZN4core3fmt8builders10DebugTuple6finish17hc943df4b07b6e466E>
  204470:	48 83 c4 28          	add    $0x28,%rsp
  204474:	5b                   	pop    %rbx
  204475:	41 5e                	pop    %r14
  204477:	c3                   	retq   
  204478:	cc                   	int3   
  204479:	cc                   	int3   
  20447a:	cc                   	int3   
  20447b:	cc                   	int3   
  20447c:	cc                   	int3   
  20447d:	cc                   	int3   
  20447e:	cc                   	int3   
  20447f:	cc                   	int3   

0000000000204480 <_ZN43_$LT$u64$u20$as$u20$bit_field..BitField$GT$8get_bits17hc8035016be2c1285E>:
  204480:	50                   	push   %rax
  204481:	48 83 fe 3f          	cmp    $0x3f,%rsi
  204485:	77 20                	ja     2044a7 <_ZN43_$LT$u64$u20$as$u20$bit_field..BitField$GT$8get_bits17hc8035016be2c1285E+0x27>
  204487:	48 89 d1             	mov    %rdx,%rcx
  20448a:	48 83 fa 40          	cmp    $0x40,%rdx
  20448e:	77 23                	ja     2044b3 <_ZN43_$LT$u64$u20$as$u20$bit_field..BitField$GT$8get_bits17hc8035016be2c1285E+0x33>
  204490:	48 39 ce             	cmp    %rcx,%rsi
  204493:	73 2a                	jae    2044bf <_ZN43_$LT$u64$u20$as$u20$bit_field..BitField$GT$8get_bits17hc8035016be2c1285E+0x3f>
  204495:	48 8b 07             	mov    (%rdi),%rax
  204498:	f6 d9                	neg    %cl
  20449a:	48 d3 e0             	shl    %cl,%rax
  20449d:	48 d3 e8             	shr    %cl,%rax
  2044a0:	89 f1                	mov    %esi,%ecx
  2044a2:	48 d3 e8             	shr    %cl,%rax
  2044a5:	59                   	pop    %rcx
  2044a6:	c3                   	retq   
  2044a7:	bf a0 04 20 00       	mov    $0x2004a0,%edi
  2044ac:	be 32 00 00 00       	mov    $0x32,%esi
  2044b1:	eb 16                	jmp    2044c9 <_ZN43_$LT$u64$u20$as$u20$bit_field..BitField$GT$8get_bits17hc8035016be2c1285E+0x49>
  2044b3:	bf d2 04 20 00       	mov    $0x2004d2,%edi
  2044b8:	be 31 00 00 00       	mov    $0x31,%esi
  2044bd:	eb 0a                	jmp    2044c9 <_ZN43_$LT$u64$u20$as$u20$bit_field..BitField$GT$8get_bits17hc8035016be2c1285E+0x49>
  2044bf:	bf 03 05 20 00       	mov    $0x200503,%edi
  2044c4:	be 29 00 00 00       	mov    $0x29,%esi
  2044c9:	ba 88 04 20 00       	mov    $0x200488,%edx
  2044ce:	e8 7d 0e 00 00       	callq  205350 <_ZN4core9panicking5panic17h0d5eac47308c2a59E>
  2044d3:	0f 0b                	ud2    
  2044d5:	cc                   	int3   
  2044d6:	cc                   	int3   
  2044d7:	cc                   	int3   
  2044d8:	cc                   	int3   
  2044d9:	cc                   	int3   
  2044da:	cc                   	int3   
  2044db:	cc                   	int3   
  2044dc:	cc                   	int3   
  2044dd:	cc                   	int3   
  2044de:	cc                   	int3   
  2044df:	cc                   	int3   

00000000002044e0 <_ZN43_$LT$u64$u20$as$u20$bit_field..BitField$GT$8set_bits17hf52b9dee278ae173E>:
  2044e0:	50                   	push   %rax
  2044e1:	48 83 fe 3f          	cmp    $0x3f,%rsi
  2044e5:	77 50                	ja     204537 <_ZN43_$LT$u64$u20$as$u20$bit_field..BitField$GT$8set_bits17hf52b9dee278ae173E+0x57>
  2044e7:	48 83 fa 40          	cmp    $0x40,%rdx
  2044eb:	77 56                	ja     204543 <_ZN43_$LT$u64$u20$as$u20$bit_field..BitField$GT$8set_bits17hf52b9dee278ae173E+0x63>
  2044ed:	49 89 f1             	mov    %rsi,%r9
  2044f0:	48 39 d6             	cmp    %rdx,%rsi
  2044f3:	73 5a                	jae    20454f <_ZN43_$LT$u64$u20$as$u20$bit_field..BitField$GT$8set_bits17hf52b9dee278ae173E+0x6f>
  2044f5:	49 89 c8             	mov    %rcx,%r8
  2044f8:	48 89 f8             	mov    %rdi,%rax
  2044fb:	44 89 c9             	mov    %r9d,%ecx
  2044fe:	29 d1                	sub    %edx,%ecx
  204500:	48 c7 c7 ff ff ff ff 	mov    $0xffffffffffffffff,%rdi
  204507:	48 c7 c6 ff ff ff ff 	mov    $0xffffffffffffffff,%rsi
  20450e:	48 d3 ee             	shr    %cl,%rsi
  204511:	4c 39 c6             	cmp    %r8,%rsi
  204514:	72 45                	jb     20455b <_ZN43_$LT$u64$u20$as$u20$bit_field..BitField$GT$8set_bits17hf52b9dee278ae173E+0x7b>
  204516:	f6 da                	neg    %dl
  204518:	89 d1                	mov    %edx,%ecx
  20451a:	48 d3 ef             	shr    %cl,%rdi
  20451d:	44 89 c9             	mov    %r9d,%ecx
  204520:	48 d3 ef             	shr    %cl,%rdi
  204523:	48 d3 e7             	shl    %cl,%rdi
  204526:	48 f7 d7             	not    %rdi
  204529:	48 23 38             	and    (%rax),%rdi
  20452c:	49 d3 e0             	shl    %cl,%r8
  20452f:	49 09 f8             	or     %rdi,%r8
  204532:	4c 89 00             	mov    %r8,(%rax)
  204535:	59                   	pop    %rcx
  204536:	c3                   	retq   
  204537:	bf a0 04 20 00       	mov    $0x2004a0,%edi
  20453c:	be 32 00 00 00       	mov    $0x32,%esi
  204541:	eb 22                	jmp    204565 <_ZN43_$LT$u64$u20$as$u20$bit_field..BitField$GT$8set_bits17hf52b9dee278ae173E+0x85>
  204543:	bf d2 04 20 00       	mov    $0x2004d2,%edi
  204548:	be 31 00 00 00       	mov    $0x31,%esi
  20454d:	eb 16                	jmp    204565 <_ZN43_$LT$u64$u20$as$u20$bit_field..BitField$GT$8set_bits17hf52b9dee278ae173E+0x85>
  20454f:	bf 03 05 20 00       	mov    $0x200503,%edi
  204554:	be 29 00 00 00       	mov    $0x29,%esi
  204559:	eb 0a                	jmp    204565 <_ZN43_$LT$u64$u20$as$u20$bit_field..BitField$GT$8set_bits17hf52b9dee278ae173E+0x85>
  20455b:	bf 2c 05 20 00       	mov    $0x20052c,%edi
  204560:	be 21 00 00 00       	mov    $0x21,%esi
  204565:	ba 88 04 20 00       	mov    $0x200488,%edx
  20456a:	e8 e1 0d 00 00       	callq  205350 <_ZN4core9panicking5panic17h0d5eac47308c2a59E>
  20456f:	0f 0b                	ud2    
  204571:	cc                   	int3   
  204572:	cc                   	int3   
  204573:	cc                   	int3   
  204574:	cc                   	int3   
  204575:	cc                   	int3   
  204576:	cc                   	int3   
  204577:	cc                   	int3   
  204578:	cc                   	int3   
  204579:	cc                   	int3   
  20457a:	cc                   	int3   
  20457b:	cc                   	int3   
  20457c:	cc                   	int3   
  20457d:	cc                   	int3   
  20457e:	cc                   	int3   
  20457f:	cc                   	int3   

0000000000204580 <_ZN43_$LT$i16$u20$as$u20$bit_field..BitField$GT$7set_bit17h8d92c366f20f8242E>:
  204580:	50                   	push   %rax
  204581:	48 83 fe 0f          	cmp    $0xf,%rsi
  204585:	77 23                	ja     2045aa <_ZN43_$LT$i16$u20$as$u20$bit_field..BitField$GT$7set_bit17h8d92c366f20f8242E+0x2a>
  204587:	48 89 f1             	mov    %rsi,%rcx
  20458a:	48 89 f8             	mov    %rdi,%rax
  20458d:	be 01 00 00 00       	mov    $0x1,%esi
  204592:	d3 e6                	shl    %cl,%esi
  204594:	84 d2                	test   %dl,%dl
  204596:	74 08                	je     2045a0 <_ZN43_$LT$i16$u20$as$u20$bit_field..BitField$GT$7set_bit17h8d92c366f20f8242E+0x20>
  204598:	66 0b 30             	or     (%rax),%si
  20459b:	66 89 30             	mov    %si,(%rax)
  20459e:	59                   	pop    %rcx
  20459f:	c3                   	retq   
  2045a0:	f7 d6                	not    %esi
  2045a2:	66 23 30             	and    (%rax),%si
  2045a5:	66 89 30             	mov    %si,(%rax)
  2045a8:	59                   	pop    %rcx
  2045a9:	c3                   	retq   
  2045aa:	bf 00 04 20 00       	mov    $0x200400,%edi
  2045af:	be 2a 00 00 00       	mov    $0x2a,%esi
  2045b4:	ba 88 04 20 00       	mov    $0x200488,%edx
  2045b9:	e8 92 0d 00 00       	callq  205350 <_ZN4core9panicking5panic17h0d5eac47308c2a59E>
  2045be:	0f 0b                	ud2    

00000000002045c0 <_ZN60_$LT$spin..once..Finish$u20$as$u20$core..ops..drop..Drop$GT$4drop17hb2f36b9470b50a54E>:
  2045c0:	80 7f 08 00          	cmpb   $0x0,0x8(%rdi)
  2045c4:	74 0b                	je     2045d1 <_ZN60_$LT$spin..once..Finish$u20$as$u20$core..ops..drop..Drop$GT$4drop17hb2f36b9470b50a54E+0x11>
  2045c6:	48 8b 07             	mov    (%rdi),%rax
  2045c9:	b9 03 00 00 00       	mov    $0x3,%ecx
  2045ce:	48 87 08             	xchg   %rcx,(%rax)
  2045d1:	c3                   	retq   
  2045d2:	cc                   	int3   
  2045d3:	cc                   	int3   
  2045d4:	cc                   	int3   
  2045d5:	cc                   	int3   
  2045d6:	cc                   	int3   
  2045d7:	cc                   	int3   
  2045d8:	cc                   	int3   
  2045d9:	cc                   	int3   
  2045da:	cc                   	int3   
  2045db:	cc                   	int3   
  2045dc:	cc                   	int3   
  2045dd:	cc                   	int3   
  2045de:	cc                   	int3   
  2045df:	cc                   	int3   

00000000002045e0 <_ZN14pic8259_simple11ChainedPics10initialize17h1c2b6c86ede0df3cE>:
  2045e0:	55                   	push   %rbp
  2045e1:	41 56                	push   %r14
  2045e3:	53                   	push   %rbx
  2045e4:	48 89 fb             	mov    %rdi,%rbx
  2045e7:	0f b7 7f 02          	movzwl 0x2(%rdi),%edi
  2045eb:	e8 60 01 00 00       	callq  204750 <_ZN35_$LT$u8$u20$as$u20$cpuio..InOut$GT$7port_in17hd1dc01a4c91d922eE>
  2045f0:	89 c5                	mov    %eax,%ebp
  2045f2:	0f b7 7b 08          	movzwl 0x8(%rbx),%edi
  2045f6:	e8 55 01 00 00       	callq  204750 <_ZN35_$LT$u8$u20$as$u20$cpuio..InOut$GT$7port_in17hd1dc01a4c91d922eE>
  2045fb:	41 89 c6             	mov    %eax,%r14d
  2045fe:	0f b7 3b             	movzwl (%rbx),%edi
  204601:	be 11 00 00 00       	mov    $0x11,%esi
  204606:	e8 55 01 00 00       	callq  204760 <_ZN35_$LT$u8$u20$as$u20$cpuio..InOut$GT$8port_out17ha5cf7446d442f42bE>
  20460b:	bf 80 00 00 00       	mov    $0x80,%edi
  204610:	31 f6                	xor    %esi,%esi
  204612:	e8 49 01 00 00       	callq  204760 <_ZN35_$LT$u8$u20$as$u20$cpuio..InOut$GT$8port_out17ha5cf7446d442f42bE>
  204617:	0f b7 7b 06          	movzwl 0x6(%rbx),%edi
  20461b:	be 11 00 00 00       	mov    $0x11,%esi
  204620:	e8 3b 01 00 00       	callq  204760 <_ZN35_$LT$u8$u20$as$u20$cpuio..InOut$GT$8port_out17ha5cf7446d442f42bE>
  204625:	bf 80 00 00 00       	mov    $0x80,%edi
  20462a:	31 f6                	xor    %esi,%esi
  20462c:	e8 2f 01 00 00       	callq  204760 <_ZN35_$LT$u8$u20$as$u20$cpuio..InOut$GT$8port_out17ha5cf7446d442f42bE>
  204631:	0f b7 7b 02          	movzwl 0x2(%rbx),%edi
  204635:	0f b6 73 04          	movzbl 0x4(%rbx),%esi
  204639:	e8 22 01 00 00       	callq  204760 <_ZN35_$LT$u8$u20$as$u20$cpuio..InOut$GT$8port_out17ha5cf7446d442f42bE>
  20463e:	bf 80 00 00 00       	mov    $0x80,%edi
  204643:	31 f6                	xor    %esi,%esi
  204645:	e8 16 01 00 00       	callq  204760 <_ZN35_$LT$u8$u20$as$u20$cpuio..InOut$GT$8port_out17ha5cf7446d442f42bE>
  20464a:	0f b7 7b 08          	movzwl 0x8(%rbx),%edi
  20464e:	0f b6 73 0a          	movzbl 0xa(%rbx),%esi
  204652:	e8 09 01 00 00       	callq  204760 <_ZN35_$LT$u8$u20$as$u20$cpuio..InOut$GT$8port_out17ha5cf7446d442f42bE>
  204657:	bf 80 00 00 00       	mov    $0x80,%edi
  20465c:	31 f6                	xor    %esi,%esi
  20465e:	e8 fd 00 00 00       	callq  204760 <_ZN35_$LT$u8$u20$as$u20$cpuio..InOut$GT$8port_out17ha5cf7446d442f42bE>
  204663:	0f b7 7b 02          	movzwl 0x2(%rbx),%edi
  204667:	be 04 00 00 00       	mov    $0x4,%esi
  20466c:	e8 ef 00 00 00       	callq  204760 <_ZN35_$LT$u8$u20$as$u20$cpuio..InOut$GT$8port_out17ha5cf7446d442f42bE>
  204671:	bf 80 00 00 00       	mov    $0x80,%edi
  204676:	31 f6                	xor    %esi,%esi
  204678:	e8 e3 00 00 00       	callq  204760 <_ZN35_$LT$u8$u20$as$u20$cpuio..InOut$GT$8port_out17ha5cf7446d442f42bE>
  20467d:	0f b7 7b 08          	movzwl 0x8(%rbx),%edi
  204681:	be 02 00 00 00       	mov    $0x2,%esi
  204686:	e8 d5 00 00 00       	callq  204760 <_ZN35_$LT$u8$u20$as$u20$cpuio..InOut$GT$8port_out17ha5cf7446d442f42bE>
  20468b:	bf 80 00 00 00       	mov    $0x80,%edi
  204690:	31 f6                	xor    %esi,%esi
  204692:	e8 c9 00 00 00       	callq  204760 <_ZN35_$LT$u8$u20$as$u20$cpuio..InOut$GT$8port_out17ha5cf7446d442f42bE>
  204697:	0f b7 7b 02          	movzwl 0x2(%rbx),%edi
  20469b:	be 01 00 00 00       	mov    $0x1,%esi
  2046a0:	e8 bb 00 00 00       	callq  204760 <_ZN35_$LT$u8$u20$as$u20$cpuio..InOut$GT$8port_out17ha5cf7446d442f42bE>
  2046a5:	bf 80 00 00 00       	mov    $0x80,%edi
  2046aa:	31 f6                	xor    %esi,%esi
  2046ac:	e8 af 00 00 00       	callq  204760 <_ZN35_$LT$u8$u20$as$u20$cpuio..InOut$GT$8port_out17ha5cf7446d442f42bE>
  2046b1:	0f b7 7b 08          	movzwl 0x8(%rbx),%edi
  2046b5:	be 01 00 00 00       	mov    $0x1,%esi
  2046ba:	e8 a1 00 00 00       	callq  204760 <_ZN35_$LT$u8$u20$as$u20$cpuio..InOut$GT$8port_out17ha5cf7446d442f42bE>
  2046bf:	bf 80 00 00 00       	mov    $0x80,%edi
  2046c4:	31 f6                	xor    %esi,%esi
  2046c6:	e8 95 00 00 00       	callq  204760 <_ZN35_$LT$u8$u20$as$u20$cpuio..InOut$GT$8port_out17ha5cf7446d442f42bE>
  2046cb:	0f b7 7b 02          	movzwl 0x2(%rbx),%edi
  2046cf:	40 0f b6 f5          	movzbl %bpl,%esi
  2046d3:	e8 88 00 00 00       	callq  204760 <_ZN35_$LT$u8$u20$as$u20$cpuio..InOut$GT$8port_out17ha5cf7446d442f42bE>
  2046d8:	41 0f b6 f6          	movzbl %r14b,%esi
  2046dc:	0f b7 7b 08          	movzwl 0x8(%rbx),%edi
  2046e0:	5b                   	pop    %rbx
  2046e1:	41 5e                	pop    %r14
  2046e3:	5d                   	pop    %rbp
  2046e4:	e9 77 00 00 00       	jmpq   204760 <_ZN35_$LT$u8$u20$as$u20$cpuio..InOut$GT$8port_out17ha5cf7446d442f42bE>
  2046e9:	cc                   	int3   
  2046ea:	cc                   	int3   
  2046eb:	cc                   	int3   
  2046ec:	cc                   	int3   
  2046ed:	cc                   	int3   
  2046ee:	cc                   	int3   
  2046ef:	cc                   	int3   

00000000002046f0 <_ZN14pic8259_simple11ChainedPics23notify_end_of_interrupt17h7c603ddd93e5eb82E>:
  2046f0:	53                   	push   %rbx
  2046f1:	48 89 fb             	mov    %rdi,%rbx
  2046f4:	b8 0c 00 00 00       	mov    $0xc,%eax
  2046f9:	48 89 f9             	mov    %rdi,%rcx
  2046fc:	0f 1f 40 00          	nopl   0x0(%rax)
  204700:	48 85 c0             	test   %rax,%rax
  204703:	74 44                	je     204749 <_ZN14pic8259_simple11ChainedPics23notify_end_of_interrupt17h7c603ddd93e5eb82E+0x59>
  204705:	0f b6 51 04          	movzbl 0x4(%rcx),%edx
  204709:	48 83 c1 06          	add    $0x6,%rcx
  20470d:	48 83 c0 fa          	add    $0xfffffffffffffffa,%rax
  204711:	40 38 f2             	cmp    %sil,%dl
  204714:	77 ea                	ja     204700 <_ZN14pic8259_simple11ChainedPics23notify_end_of_interrupt17h7c603ddd93e5eb82E+0x10>
  204716:	80 c2 08             	add    $0x8,%dl
  204719:	40 38 f2             	cmp    %sil,%dl
  20471c:	76 e2                	jbe    204700 <_ZN14pic8259_simple11ChainedPics23notify_end_of_interrupt17h7c603ddd93e5eb82E+0x10>
  20471e:	8a 43 0a             	mov    0xa(%rbx),%al
  204721:	40 38 f0             	cmp    %sil,%al
  204724:	77 15                	ja     20473b <_ZN14pic8259_simple11ChainedPics23notify_end_of_interrupt17h7c603ddd93e5eb82E+0x4b>
  204726:	04 08                	add    $0x8,%al
  204728:	40 38 f0             	cmp    %sil,%al
  20472b:	76 0e                	jbe    20473b <_ZN14pic8259_simple11ChainedPics23notify_end_of_interrupt17h7c603ddd93e5eb82E+0x4b>
  20472d:	0f b7 7b 06          	movzwl 0x6(%rbx),%edi
  204731:	be 20 00 00 00       	mov    $0x20,%esi
  204736:	e8 25 00 00 00       	callq  204760 <_ZN35_$LT$u8$u20$as$u20$cpuio..InOut$GT$8port_out17ha5cf7446d442f42bE>
  20473b:	0f b7 3b             	movzwl (%rbx),%edi
  20473e:	be 20 00 00 00       	mov    $0x20,%esi
  204743:	5b                   	pop    %rbx
  204744:	e9 17 00 00 00       	jmpq   204760 <_ZN35_$LT$u8$u20$as$u20$cpuio..InOut$GT$8port_out17ha5cf7446d442f42bE>
  204749:	5b                   	pop    %rbx
  20474a:	c3                   	retq   
  20474b:	cc                   	int3   
  20474c:	cc                   	int3   
  20474d:	cc                   	int3   
  20474e:	cc                   	int3   
  20474f:	cc                   	int3   

0000000000204750 <_ZN35_$LT$u8$u20$as$u20$cpuio..InOut$GT$7port_in17hd1dc01a4c91d922eE>:
  204750:	89 fa                	mov    %edi,%edx
  204752:	ec                   	in     (%dx),%al
  204753:	c3                   	retq   
  204754:	cc                   	int3   
  204755:	cc                   	int3   
  204756:	cc                   	int3   
  204757:	cc                   	int3   
  204758:	cc                   	int3   
  204759:	cc                   	int3   
  20475a:	cc                   	int3   
  20475b:	cc                   	int3   
  20475c:	cc                   	int3   
  20475d:	cc                   	int3   
  20475e:	cc                   	int3   
  20475f:	cc                   	int3   

0000000000204760 <_ZN35_$LT$u8$u20$as$u20$cpuio..InOut$GT$8port_out17ha5cf7446d442f42bE>:
  204760:	89 f0                	mov    %esi,%eax
  204762:	89 fa                	mov    %edi,%edx
  204764:	ee                   	out    %al,(%dx)
  204765:	c3                   	retq   
  204766:	cc                   	int3   
  204767:	cc                   	int3   
  204768:	cc                   	int3   
  204769:	cc                   	int3   
  20476a:	cc                   	int3   
  20476b:	cc                   	int3   
  20476c:	cc                   	int3   
  20476d:	cc                   	int3   
  20476e:	cc                   	int3   
  20476f:	cc                   	int3   

0000000000204770 <_ZN4core3fmt3num53_$LT$impl$u20$core..fmt..LowerHex$u20$for$u20$i64$GT$3fmt17hacecc58870521670E>:
  204770:	48 81 ec 88 00 00 00 	sub    $0x88,%rsp
  204777:	48 8b 0f             	mov    (%rdi),%rcx
  20477a:	4c 8d 84 24 88 00 00 	lea    0x88(%rsp),%r8
  204781:	00 
  204782:	45 31 c9             	xor    %r9d,%r9d
  204785:	48 89 c8             	mov    %rcx,%rax
  204788:	0f 1f 84 00 00 00 00 	nopl   0x0(%rax,%rax,1)
  20478f:	00 
  204790:	48 c1 e8 04          	shr    $0x4,%rax
  204794:	80 e1 0f             	and    $0xf,%cl
  204797:	8d 51 30             	lea    0x30(%rcx),%edx
  20479a:	8d 79 57             	lea    0x57(%rcx),%edi
  20479d:	80 f9 0a             	cmp    $0xa,%cl
  2047a0:	0f b6 ca             	movzbl %dl,%ecx
  2047a3:	40 0f b6 d7          	movzbl %dil,%edx
  2047a7:	0f 42 d1             	cmovb  %ecx,%edx
  2047aa:	41 88 50 ff          	mov    %dl,-0x1(%r8)
  2047ae:	49 ff c8             	dec    %r8
  2047b1:	49 ff c1             	inc    %r9
  2047b4:	48 85 c0             	test   %rax,%rax
  2047b7:	48 89 c1             	mov    %rax,%rcx
  2047ba:	75 d4                	jne    204790 <_ZN4core3fmt3num53_$LT$impl$u20$core..fmt..LowerHex$u20$for$u20$i64$GT$3fmt17hacecc58870521670E+0x20>
  2047bc:	bf 80 00 00 00       	mov    $0x80,%edi
  2047c1:	4c 29 cf             	sub    %r9,%rdi
  2047c4:	48 81 ff 81 00 00 00 	cmp    $0x81,%rdi
  2047cb:	73 1f                	jae    2047ec <_ZN4core3fmt3num53_$LT$impl$u20$core..fmt..LowerHex$u20$for$u20$i64$GT$3fmt17hacecc58870521670E+0x7c>
  2047cd:	ba e0 05 20 00       	mov    $0x2005e0,%edx
  2047d2:	b9 02 00 00 00       	mov    $0x2,%ecx
  2047d7:	48 89 f7             	mov    %rsi,%rdi
  2047da:	be 01 00 00 00       	mov    $0x1,%esi
  2047df:	e8 fc 11 00 00       	callq  2059e0 <_ZN4core3fmt9Formatter12pad_integral17h4b39f03cb4a1838dE>
  2047e4:	48 81 c4 88 00 00 00 	add    $0x88,%rsp
  2047eb:	c3                   	retq   
  2047ec:	be 80 00 00 00       	mov    $0x80,%esi
  2047f1:	ba c8 05 20 00       	mov    $0x2005c8,%edx
  2047f6:	e8 95 00 00 00       	callq  204890 <_ZN4core5slice5index26slice_start_index_len_fail17he140cef4d69855b6E>
  2047fb:	0f 0b                	ud2    
  2047fd:	cc                   	int3   
  2047fe:	cc                   	int3   
  2047ff:	cc                   	int3   

0000000000204800 <_ZN4core3fmt3num53_$LT$impl$u20$core..fmt..UpperHex$u20$for$u20$i64$GT$3fmt17hfc111a23073eb076E>:
  204800:	48 81 ec 88 00 00 00 	sub    $0x88,%rsp
  204807:	48 8b 0f             	mov    (%rdi),%rcx
  20480a:	4c 8d 84 24 88 00 00 	lea    0x88(%rsp),%r8
  204811:	00 
  204812:	45 31 c9             	xor    %r9d,%r9d
  204815:	48 89 c8             	mov    %rcx,%rax
  204818:	0f 1f 84 00 00 00 00 	nopl   0x0(%rax,%rax,1)
  20481f:	00 
  204820:	48 c1 e8 04          	shr    $0x4,%rax
  204824:	80 e1 0f             	and    $0xf,%cl
  204827:	8d 51 30             	lea    0x30(%rcx),%edx
  20482a:	8d 79 37             	lea    0x37(%rcx),%edi
  20482d:	80 f9 0a             	cmp    $0xa,%cl
  204830:	0f b6 ca             	movzbl %dl,%ecx
  204833:	40 0f b6 d7          	movzbl %dil,%edx
  204837:	0f 42 d1             	cmovb  %ecx,%edx
  20483a:	41 88 50 ff          	mov    %dl,-0x1(%r8)
  20483e:	49 ff c8             	dec    %r8
  204841:	49 ff c1             	inc    %r9
  204844:	48 85 c0             	test   %rax,%rax
  204847:	48 89 c1             	mov    %rax,%rcx
  20484a:	75 d4                	jne    204820 <_ZN4core3fmt3num53_$LT$impl$u20$core..fmt..UpperHex$u20$for$u20$i64$GT$3fmt17hfc111a23073eb076E+0x20>
  20484c:	bf 80 00 00 00       	mov    $0x80,%edi
  204851:	4c 29 cf             	sub    %r9,%rdi
  204854:	48 81 ff 81 00 00 00 	cmp    $0x81,%rdi
  20485b:	73 1f                	jae    20487c <_ZN4core3fmt3num53_$LT$impl$u20$core..fmt..UpperHex$u20$for$u20$i64$GT$3fmt17hfc111a23073eb076E+0x7c>
  20485d:	ba e0 05 20 00       	mov    $0x2005e0,%edx
  204862:	b9 02 00 00 00       	mov    $0x2,%ecx
  204867:	48 89 f7             	mov    %rsi,%rdi
  20486a:	be 01 00 00 00       	mov    $0x1,%esi
  20486f:	e8 6c 11 00 00       	callq  2059e0 <_ZN4core3fmt9Formatter12pad_integral17h4b39f03cb4a1838dE>
  204874:	48 81 c4 88 00 00 00 	add    $0x88,%rsp
  20487b:	c3                   	retq   
  20487c:	be 80 00 00 00       	mov    $0x80,%esi
  204881:	ba c8 05 20 00       	mov    $0x2005c8,%edx
  204886:	e8 05 00 00 00       	callq  204890 <_ZN4core5slice5index26slice_start_index_len_fail17he140cef4d69855b6E>
  20488b:	0f 0b                	ud2    
  20488d:	cc                   	int3   
  20488e:	cc                   	int3   
  20488f:	cc                   	int3   

0000000000204890 <_ZN4core5slice5index26slice_start_index_len_fail17he140cef4d69855b6E>:
  204890:	48 83 ec 68          	sub    $0x68,%rsp
  204894:	48 89 7c 24 08       	mov    %rdi,0x8(%rsp)
  204899:	48 89 74 24 10       	mov    %rsi,0x10(%rsp)
  20489e:	48 8d 44 24 08       	lea    0x8(%rsp),%rax
  2048a3:	48 89 44 24 18       	mov    %rax,0x18(%rsp)
  2048a8:	48 c7 44 24 20 d0 54 	movq   $0x2054d0,0x20(%rsp)
  2048af:	20 00 
  2048b1:	48 8d 44 24 10       	lea    0x10(%rsp),%rax
  2048b6:	48 89 44 24 28       	mov    %rax,0x28(%rsp)
  2048bb:	48 c7 44 24 30 d0 54 	movq   $0x2054d0,0x30(%rsp)
  2048c2:	20 00 
  2048c4:	48 c7 44 24 38 e0 06 	movq   $0x2006e0,0x38(%rsp)
  2048cb:	20 00 
  2048cd:	48 c7 44 24 40 02 00 	movq   $0x2,0x40(%rsp)
  2048d4:	00 00 
  2048d6:	48 c7 44 24 48 00 00 	movq   $0x0,0x48(%rsp)
  2048dd:	00 00 
  2048df:	48 8d 44 24 18       	lea    0x18(%rsp),%rax
  2048e4:	48 89 44 24 58       	mov    %rax,0x58(%rsp)
  2048e9:	48 c7 44 24 60 02 00 	movq   $0x2,0x60(%rsp)
  2048f0:	00 00 
  2048f2:	48 8d 7c 24 38       	lea    0x38(%rsp),%rdi
  2048f7:	48 89 d6             	mov    %rdx,%rsi
  2048fa:	e8 21 0b 00 00       	callq  205420 <_ZN4core9panicking9panic_fmt17h1619cca849ead7e0E>
  2048ff:	0f 0b                	ud2    
  204901:	cc                   	int3   
  204902:	cc                   	int3   
  204903:	cc                   	int3   
  204904:	cc                   	int3   
  204905:	cc                   	int3   
  204906:	cc                   	int3   
  204907:	cc                   	int3   
  204908:	cc                   	int3   
  204909:	cc                   	int3   
  20490a:	cc                   	int3   
  20490b:	cc                   	int3   
  20490c:	cc                   	int3   
  20490d:	cc                   	int3   
  20490e:	cc                   	int3   
  20490f:	cc                   	int3   

0000000000204910 <_ZN4core5slice5index24slice_end_index_len_fail17h675c34485e96ecc6E>:
  204910:	48 83 ec 68          	sub    $0x68,%rsp
  204914:	48 89 7c 24 08       	mov    %rdi,0x8(%rsp)
  204919:	48 89 74 24 10       	mov    %rsi,0x10(%rsp)
  20491e:	48 8d 44 24 08       	lea    0x8(%rsp),%rax
  204923:	48 89 44 24 18       	mov    %rax,0x18(%rsp)
  204928:	48 c7 44 24 20 d0 54 	movq   $0x2054d0,0x20(%rsp)
  20492f:	20 00 
  204931:	48 8d 44 24 10       	lea    0x10(%rsp),%rax
  204936:	48 89 44 24 28       	mov    %rax,0x28(%rsp)
  20493b:	48 c7 44 24 30 d0 54 	movq   $0x2054d0,0x30(%rsp)
  204942:	20 00 
  204944:	48 c7 44 24 38 00 07 	movq   $0x200700,0x38(%rsp)
  20494b:	20 00 
  20494d:	48 c7 44 24 40 02 00 	movq   $0x2,0x40(%rsp)
  204954:	00 00 
  204956:	48 c7 44 24 48 00 00 	movq   $0x0,0x48(%rsp)
  20495d:	00 00 
  20495f:	48 8d 44 24 18       	lea    0x18(%rsp),%rax
  204964:	48 89 44 24 58       	mov    %rax,0x58(%rsp)
  204969:	48 c7 44 24 60 02 00 	movq   $0x2,0x60(%rsp)
  204970:	00 00 
  204972:	48 8d 7c 24 38       	lea    0x38(%rsp),%rdi
  204977:	48 89 d6             	mov    %rdx,%rsi
  20497a:	e8 a1 0a 00 00       	callq  205420 <_ZN4core9panicking9panic_fmt17h1619cca849ead7e0E>
  20497f:	0f 0b                	ud2    
  204981:	cc                   	int3   
  204982:	cc                   	int3   
  204983:	cc                   	int3   
  204984:	cc                   	int3   
  204985:	cc                   	int3   
  204986:	cc                   	int3   
  204987:	cc                   	int3   
  204988:	cc                   	int3   
  204989:	cc                   	int3   
  20498a:	cc                   	int3   
  20498b:	cc                   	int3   
  20498c:	cc                   	int3   
  20498d:	cc                   	int3   
  20498e:	cc                   	int3   
  20498f:	cc                   	int3   

0000000000204990 <_ZN4core5slice5index22slice_index_order_fail17hd00cb0dbceb20698E>:
  204990:	48 83 ec 68          	sub    $0x68,%rsp
  204994:	48 89 7c 24 08       	mov    %rdi,0x8(%rsp)
  204999:	48 89 74 24 10       	mov    %rsi,0x10(%rsp)
  20499e:	48 8d 44 24 08       	lea    0x8(%rsp),%rax
  2049a3:	48 89 44 24 18       	mov    %rax,0x18(%rsp)
  2049a8:	48 c7 44 24 20 d0 54 	movq   $0x2054d0,0x20(%rsp)
  2049af:	20 00 
  2049b1:	48 8d 44 24 10       	lea    0x10(%rsp),%rax
  2049b6:	48 89 44 24 28       	mov    %rax,0x28(%rsp)
  2049bb:	48 c7 44 24 30 d0 54 	movq   $0x2054d0,0x30(%rsp)
  2049c2:	20 00 
  2049c4:	48 c7 44 24 38 48 07 	movq   $0x200748,0x38(%rsp)
  2049cb:	20 00 
  2049cd:	48 c7 44 24 40 02 00 	movq   $0x2,0x40(%rsp)
  2049d4:	00 00 
  2049d6:	48 c7 44 24 48 00 00 	movq   $0x0,0x48(%rsp)
  2049dd:	00 00 
  2049df:	48 8d 44 24 18       	lea    0x18(%rsp),%rax
  2049e4:	48 89 44 24 58       	mov    %rax,0x58(%rsp)
  2049e9:	48 c7 44 24 60 02 00 	movq   $0x2,0x60(%rsp)
  2049f0:	00 00 
  2049f2:	48 8d 7c 24 38       	lea    0x38(%rsp),%rdi
  2049f7:	48 89 d6             	mov    %rdx,%rsi
  2049fa:	e8 21 0a 00 00       	callq  205420 <_ZN4core9panicking9panic_fmt17h1619cca849ead7e0E>
  2049ff:	0f 0b                	ud2    
  204a01:	cc                   	int3   
  204a02:	cc                   	int3   
  204a03:	cc                   	int3   
  204a04:	cc                   	int3   
  204a05:	cc                   	int3   
  204a06:	cc                   	int3   
  204a07:	cc                   	int3   
  204a08:	cc                   	int3   
  204a09:	cc                   	int3   
  204a0a:	cc                   	int3   
  204a0b:	cc                   	int3   
  204a0c:	cc                   	int3   
  204a0d:	cc                   	int3   
  204a0e:	cc                   	int3   
  204a0f:	cc                   	int3   

0000000000204a10 <_ZN71_$LT$core..ops..range..Range$LT$Idx$GT$$u20$as$u20$core..fmt..Debug$GT$3fmt17h031be6fd84097705E>:
  204a10:	41 57                	push   %r15
  204a12:	41 56                	push   %r14
  204a14:	53                   	push   %rbx
  204a15:	48 81 ec 80 00 00 00 	sub    $0x80,%rsp
  204a1c:	49 89 f7             	mov    %rsi,%r15
  204a1f:	49 89 fe             	mov    %rdi,%r14
  204a22:	8b 46 30             	mov    0x30(%rsi),%eax
  204a25:	a8 10                	test   $0x10,%al
  204a27:	0f 85 d5 00 00 00    	jne    204b02 <_ZN71_$LT$core..ops..range..Range$LT$Idx$GT$$u20$as$u20$core..fmt..Debug$GT$3fmt17h031be6fd84097705E+0xf2>
  204a2d:	a8 20                	test   $0x20,%al
  204a2f:	49 8b 0e             	mov    (%r14),%rcx
  204a32:	0f 85 16 01 00 00    	jne    204b4e <_ZN71_$LT$core..ops..range..Range$LT$Idx$GT$$u20$as$u20$core..fmt..Debug$GT$3fmt17h031be6fd84097705E+0x13e>
  204a38:	b8 27 00 00 00       	mov    $0x27,%eax
  204a3d:	48 81 f9 10 27 00 00 	cmp    $0x2710,%rcx
  204a44:	0f 82 79 01 00 00    	jb     204bc3 <_ZN71_$LT$core..ops..range..Range$LT$Idx$GT$$u20$as$u20$core..fmt..Debug$GT$3fmt17h031be6fd84097705E+0x1b3>
  204a4a:	bf 27 00 00 00       	mov    $0x27,%edi
  204a4f:	49 b8 4b 59 86 38 d6 	movabs $0x346dc5d63886594b,%r8
  204a56:	c5 6d 34 
  204a59:	0f 1f 80 00 00 00 00 	nopl   0x0(%rax)
  204a60:	48 89 c8             	mov    %rcx,%rax
  204a63:	49 f7 e0             	mul    %r8
  204a66:	48 c1 ea 0b          	shr    $0xb,%rdx
  204a6a:	69 c2 10 27 00 00    	imul   $0x2710,%edx,%eax
  204a70:	89 cb                	mov    %ecx,%ebx
  204a72:	29 c3                	sub    %eax,%ebx
  204a74:	0f b7 c3             	movzwl %bx,%eax
  204a77:	c1 e8 02             	shr    $0x2,%eax
  204a7a:	69 f0 7b 14 00 00    	imul   $0x147b,%eax,%esi
  204a80:	c1 ee 11             	shr    $0x11,%esi
  204a83:	6b c6 64             	imul   $0x64,%esi,%eax
  204a86:	29 c3                	sub    %eax,%ebx
  204a88:	0f b7 db             	movzwl %bx,%ebx
  204a8b:	48 8d 47 fc          	lea    -0x4(%rdi),%rax
  204a8f:	0f b7 b4 36 e2 05 20 	movzwl 0x2005e2(%rsi,%rsi,1),%esi
  204a96:	00 
  204a97:	66 89 74 3c fc       	mov    %si,-0x4(%rsp,%rdi,1)
  204a9c:	0f b7 b4 1b e2 05 20 	movzwl 0x2005e2(%rbx,%rbx,1),%esi
  204aa3:	00 
  204aa4:	66 89 74 3c fe       	mov    %si,-0x2(%rsp,%rdi,1)
  204aa9:	48 81 f9 ff e0 f5 05 	cmp    $0x5f5e0ff,%rcx
  204ab0:	48 89 d1             	mov    %rdx,%rcx
  204ab3:	48 89 c7             	mov    %rax,%rdi
  204ab6:	77 a8                	ja     204a60 <_ZN71_$LT$core..ops..range..Range$LT$Idx$GT$$u20$as$u20$core..fmt..Debug$GT$3fmt17h031be6fd84097705E+0x50>
  204ab8:	48 83 fa 63          	cmp    $0x63,%rdx
  204abc:	7e 2b                	jle    204ae9 <_ZN71_$LT$core..ops..range..Range$LT$Idx$GT$$u20$as$u20$core..fmt..Debug$GT$3fmt17h031be6fd84097705E+0xd9>
  204abe:	0f b7 ca             	movzwl %dx,%ecx
  204ac1:	c1 e9 02             	shr    $0x2,%ecx
  204ac4:	69 c9 7b 14 00 00    	imul   $0x147b,%ecx,%ecx
  204aca:	c1 e9 11             	shr    $0x11,%ecx
  204acd:	6b f1 64             	imul   $0x64,%ecx,%esi
  204ad0:	29 f2                	sub    %esi,%edx
  204ad2:	0f b7 d2             	movzwl %dx,%edx
  204ad5:	0f b7 94 12 e2 05 20 	movzwl 0x2005e2(%rdx,%rdx,1),%edx
  204adc:	00 
  204add:	66 89 54 04 fe       	mov    %dx,-0x2(%rsp,%rax,1)
  204ae2:	48 83 c0 fe          	add    $0xfffffffffffffffe,%rax
  204ae6:	48 89 ca             	mov    %rcx,%rdx
  204ae9:	48 83 fa 0a          	cmp    $0xa,%rdx
  204aed:	0f 8d e2 00 00 00    	jge    204bd5 <_ZN71_$LT$core..ops..range..Range$LT$Idx$GT$$u20$as$u20$core..fmt..Debug$GT$3fmt17h031be6fd84097705E+0x1c5>
  204af3:	80 c2 30             	add    $0x30,%dl
  204af6:	88 54 04 ff          	mov    %dl,-0x1(%rsp,%rax,1)
  204afa:	48 ff c8             	dec    %rax
  204afd:	e9 e4 00 00 00       	jmpq   204be6 <_ZN71_$LT$core..ops..range..Range$LT$Idx$GT$$u20$as$u20$core..fmt..Debug$GT$3fmt17h031be6fd84097705E+0x1d6>
  204b02:	49 8b 0e             	mov    (%r14),%rcx
  204b05:	4c 8d 84 24 80 00 00 	lea    0x80(%rsp),%r8
  204b0c:	00 
  204b0d:	45 31 c9             	xor    %r9d,%r9d
  204b10:	48 89 c8             	mov    %rcx,%rax
  204b13:	66 2e 0f 1f 84 00 00 	nopw   %cs:0x0(%rax,%rax,1)
  204b1a:	00 00 00 
  204b1d:	0f 1f 00             	nopl   (%rax)
  204b20:	48 c1 e8 04          	shr    $0x4,%rax
  204b24:	80 e1 0f             	and    $0xf,%cl
  204b27:	8d 51 30             	lea    0x30(%rcx),%edx
  204b2a:	8d 71 57             	lea    0x57(%rcx),%esi
  204b2d:	80 f9 0a             	cmp    $0xa,%cl
  204b30:	0f b6 ca             	movzbl %dl,%ecx
  204b33:	40 0f b6 d6          	movzbl %sil,%edx
  204b37:	0f 42 d1             	cmovb  %ecx,%edx
  204b3a:	41 88 50 ff          	mov    %dl,-0x1(%r8)
  204b3e:	49 ff c8             	dec    %r8
  204b41:	49 ff c1             	inc    %r9
  204b44:	48 85 c0             	test   %rax,%rax
  204b47:	48 89 c1             	mov    %rax,%rcx
  204b4a:	75 d4                	jne    204b20 <_ZN71_$LT$core..ops..range..Range$LT$Idx$GT$$u20$as$u20$core..fmt..Debug$GT$3fmt17h031be6fd84097705E+0x110>
  204b4c:	eb 3e                	jmp    204b8c <_ZN71_$LT$core..ops..range..Range$LT$Idx$GT$$u20$as$u20$core..fmt..Debug$GT$3fmt17h031be6fd84097705E+0x17c>
  204b4e:	4c 8d 84 24 80 00 00 	lea    0x80(%rsp),%r8
  204b55:	00 
  204b56:	45 31 c9             	xor    %r9d,%r9d
  204b59:	48 89 c8             	mov    %rcx,%rax
  204b5c:	0f 1f 40 00          	nopl   0x0(%rax)
  204b60:	48 c1 e8 04          	shr    $0x4,%rax
  204b64:	80 e1 0f             	and    $0xf,%cl
  204b67:	8d 51 30             	lea    0x30(%rcx),%edx
  204b6a:	8d 71 37             	lea    0x37(%rcx),%esi
  204b6d:	80 f9 0a             	cmp    $0xa,%cl
  204b70:	0f b6 ca             	movzbl %dl,%ecx
  204b73:	40 0f b6 d6          	movzbl %sil,%edx
  204b77:	0f 42 d1             	cmovb  %ecx,%edx
  204b7a:	41 88 50 ff          	mov    %dl,-0x1(%r8)
  204b7e:	49 ff c8             	dec    %r8
  204b81:	49 ff c1             	inc    %r9
  204b84:	48 85 c0             	test   %rax,%rax
  204b87:	48 89 c1             	mov    %rax,%rcx
  204b8a:	75 d4                	jne    204b60 <_ZN71_$LT$core..ops..range..Range$LT$Idx$GT$$u20$as$u20$core..fmt..Debug$GT$3fmt17h031be6fd84097705E+0x150>
  204b8c:	bf 80 00 00 00       	mov    $0x80,%edi
  204b91:	4c 29 cf             	sub    %r9,%rdi
  204b94:	48 81 ff 81 00 00 00 	cmp    $0x81,%rdi
  204b9b:	0f 83 1c 02 00 00    	jae    204dbd <_ZN71_$LT$core..ops..range..Range$LT$Idx$GT$$u20$as$u20$core..fmt..Debug$GT$3fmt17h031be6fd84097705E+0x3ad>
  204ba1:	ba e0 05 20 00       	mov    $0x2005e0,%edx
  204ba6:	b9 02 00 00 00       	mov    $0x2,%ecx
  204bab:	4c 89 ff             	mov    %r15,%rdi
  204bae:	be 01 00 00 00       	mov    $0x1,%esi
  204bb3:	e8 28 0e 00 00       	callq  2059e0 <_ZN4core3fmt9Formatter12pad_integral17h4b39f03cb4a1838dE>
  204bb8:	b3 01                	mov    $0x1,%bl
  204bba:	84 c0                	test   %al,%al
  204bbc:	74 53                	je     204c11 <_ZN71_$LT$core..ops..range..Range$LT$Idx$GT$$u20$as$u20$core..fmt..Debug$GT$3fmt17h031be6fd84097705E+0x201>
  204bbe:	e9 8b 02 00 00       	jmpq   204e4e <_ZN71_$LT$core..ops..range..Range$LT$Idx$GT$$u20$as$u20$core..fmt..Debug$GT$3fmt17h031be6fd84097705E+0x43e>
  204bc3:	48 89 ca             	mov    %rcx,%rdx
  204bc6:	48 83 fa 63          	cmp    $0x63,%rdx
  204bca:	0f 8f ee fe ff ff    	jg     204abe <_ZN71_$LT$core..ops..range..Range$LT$Idx$GT$$u20$as$u20$core..fmt..Debug$GT$3fmt17h031be6fd84097705E+0xae>
  204bd0:	e9 14 ff ff ff       	jmpq   204ae9 <_ZN71_$LT$core..ops..range..Range$LT$Idx$GT$$u20$as$u20$core..fmt..Debug$GT$3fmt17h031be6fd84097705E+0xd9>
  204bd5:	0f b7 8c 12 e2 05 20 	movzwl 0x2005e2(%rdx,%rdx,1),%ecx
  204bdc:	00 
  204bdd:	66 89 4c 04 fe       	mov    %cx,-0x2(%rsp,%rax,1)
  204be2:	48 83 c0 fe          	add    $0xfffffffffffffffe,%rax
  204be6:	4c 8d 04 04          	lea    (%rsp,%rax,1),%r8
  204bea:	41 b9 27 00 00 00    	mov    $0x27,%r9d
  204bf0:	49 29 c1             	sub    %rax,%r9
  204bf3:	ba 70 0f 20 00       	mov    $0x200f70,%edx
  204bf8:	4c 89 ff             	mov    %r15,%rdi
  204bfb:	be 01 00 00 00       	mov    $0x1,%esi
  204c00:	31 c9                	xor    %ecx,%ecx
  204c02:	e8 d9 0d 00 00       	callq  2059e0 <_ZN4core3fmt9Formatter12pad_integral17h4b39f03cb4a1838dE>
  204c07:	b3 01                	mov    $0x1,%bl
  204c09:	84 c0                	test   %al,%al
  204c0b:	0f 85 3d 02 00 00    	jne    204e4e <_ZN71_$LT$core..ops..range..Range$LT$Idx$GT$$u20$as$u20$core..fmt..Debug$GT$3fmt17h031be6fd84097705E+0x43e>
  204c11:	49 8b 7f 20          	mov    0x20(%r15),%rdi
  204c15:	49 8b 77 28          	mov    0x28(%r15),%rsi
  204c19:	48 c7 04 24 70 07 20 	movq   $0x200770,(%rsp)
  204c20:	00 
  204c21:	48 c7 44 24 08 01 00 	movq   $0x1,0x8(%rsp)
  204c28:	00 00 
  204c2a:	48 c7 44 24 10 00 00 	movq   $0x0,0x10(%rsp)
  204c31:	00 00 
  204c33:	48 c7 44 24 20 80 07 	movq   $0x200780,0x20(%rsp)
  204c3a:	20 00 
  204c3c:	48 c7 44 24 28 00 00 	movq   $0x0,0x28(%rsp)
  204c43:	00 00 
  204c45:	48 89 e2             	mov    %rsp,%rdx
  204c48:	e8 13 0b 00 00       	callq  205760 <_ZN4core3fmt5write17h9e810da9ad2d3eaaE>
  204c4d:	b3 01                	mov    $0x1,%bl
  204c4f:	84 c0                	test   %al,%al
  204c51:	0f 85 f7 01 00 00    	jne    204e4e <_ZN71_$LT$core..ops..range..Range$LT$Idx$GT$$u20$as$u20$core..fmt..Debug$GT$3fmt17h031be6fd84097705E+0x43e>
  204c57:	41 8b 47 30          	mov    0x30(%r15),%eax
  204c5b:	a8 10                	test   $0x10,%al
  204c5d:	0f 85 8a 00 00 00    	jne    204ced <_ZN71_$LT$core..ops..range..Range$LT$Idx$GT$$u20$as$u20$core..fmt..Debug$GT$3fmt17h031be6fd84097705E+0x2dd>
  204c63:	a8 20                	test   $0x20,%al
  204c65:	49 8b 4e 08          	mov    0x8(%r14),%rcx
  204c69:	0f 85 f8 00 00 00    	jne    204d67 <_ZN71_$LT$core..ops..range..Range$LT$Idx$GT$$u20$as$u20$core..fmt..Debug$GT$3fmt17h031be6fd84097705E+0x357>
  204c6f:	b8 27 00 00 00       	mov    $0x27,%eax
  204c74:	48 81 f9 10 27 00 00 	cmp    $0x2710,%rcx
  204c7b:	0f 82 4d 01 00 00    	jb     204dce <_ZN71_$LT$core..ops..range..Range$LT$Idx$GT$$u20$as$u20$core..fmt..Debug$GT$3fmt17h031be6fd84097705E+0x3be>
  204c81:	bf 27 00 00 00       	mov    $0x27,%edi
  204c86:	49 b8 4b 59 86 38 d6 	movabs $0x346dc5d63886594b,%r8
  204c8d:	c5 6d 34 
  204c90:	48 89 c8             	mov    %rcx,%rax
  204c93:	49 f7 e0             	mul    %r8
  204c96:	48 c1 ea 0b          	shr    $0xb,%rdx
  204c9a:	69 c2 10 27 00 00    	imul   $0x2710,%edx,%eax
  204ca0:	89 cb                	mov    %ecx,%ebx
  204ca2:	29 c3                	sub    %eax,%ebx
  204ca4:	0f b7 c3             	movzwl %bx,%eax
  204ca7:	c1 e8 02             	shr    $0x2,%eax
  204caa:	69 f0 7b 14 00 00    	imul   $0x147b,%eax,%esi
  204cb0:	c1 ee 11             	shr    $0x11,%esi
  204cb3:	6b c6 64             	imul   $0x64,%esi,%eax
  204cb6:	29 c3                	sub    %eax,%ebx
  204cb8:	0f b7 db             	movzwl %bx,%ebx
  204cbb:	48 8d 47 fc          	lea    -0x4(%rdi),%rax
  204cbf:	0f b7 b4 36 e2 05 20 	movzwl 0x2005e2(%rsi,%rsi,1),%esi
  204cc6:	00 
  204cc7:	66 89 74 3c fc       	mov    %si,-0x4(%rsp,%rdi,1)
  204ccc:	0f b7 b4 1b e2 05 20 	movzwl 0x2005e2(%rbx,%rbx,1),%esi
  204cd3:	00 
  204cd4:	66 89 74 3c fe       	mov    %si,-0x2(%rsp,%rdi,1)
  204cd9:	48 81 f9 ff e0 f5 05 	cmp    $0x5f5e0ff,%rcx
  204ce0:	48 89 d1             	mov    %rdx,%rcx
  204ce3:	48 89 c7             	mov    %rax,%rdi
  204ce6:	77 a8                	ja     204c90 <_ZN71_$LT$core..ops..range..Range$LT$Idx$GT$$u20$as$u20$core..fmt..Debug$GT$3fmt17h031be6fd84097705E+0x280>
  204ce8:	e9 e4 00 00 00       	jmpq   204dd1 <_ZN71_$LT$core..ops..range..Range$LT$Idx$GT$$u20$as$u20$core..fmt..Debug$GT$3fmt17h031be6fd84097705E+0x3c1>
  204ced:	49 8b 4e 08          	mov    0x8(%r14),%rcx
  204cf1:	4c 8d 84 24 80 00 00 	lea    0x80(%rsp),%r8
  204cf8:	00 
  204cf9:	45 31 c9             	xor    %r9d,%r9d
  204cfc:	48 89 c8             	mov    %rcx,%rax
  204cff:	90                   	nop
  204d00:	48 c1 e8 04          	shr    $0x4,%rax
  204d04:	80 e1 0f             	and    $0xf,%cl
  204d07:	8d 51 30             	lea    0x30(%rcx),%edx
  204d0a:	8d 71 57             	lea    0x57(%rcx),%esi
  204d0d:	80 f9 0a             	cmp    $0xa,%cl
  204d10:	0f b6 ca             	movzbl %dl,%ecx
  204d13:	40 0f b6 d6          	movzbl %sil,%edx
  204d17:	0f 42 d1             	cmovb  %ecx,%edx
  204d1a:	41 88 50 ff          	mov    %dl,-0x1(%r8)
  204d1e:	49 ff c8             	dec    %r8
  204d21:	49 ff c1             	inc    %r9
  204d24:	48 85 c0             	test   %rax,%rax
  204d27:	48 89 c1             	mov    %rax,%rcx
  204d2a:	75 d4                	jne    204d00 <_ZN71_$LT$core..ops..range..Range$LT$Idx$GT$$u20$as$u20$core..fmt..Debug$GT$3fmt17h031be6fd84097705E+0x2f0>
  204d2c:	bf 80 00 00 00       	mov    $0x80,%edi
  204d31:	4c 29 cf             	sub    %r9,%rdi
  204d34:	48 81 ff 81 00 00 00 	cmp    $0x81,%rdi
  204d3b:	0f 83 7c 00 00 00    	jae    204dbd <_ZN71_$LT$core..ops..range..Range$LT$Idx$GT$$u20$as$u20$core..fmt..Debug$GT$3fmt17h031be6fd84097705E+0x3ad>
  204d41:	ba e0 05 20 00       	mov    $0x2005e0,%edx
  204d46:	b9 02 00 00 00       	mov    $0x2,%ecx
  204d4b:	4c 89 ff             	mov    %r15,%rdi
  204d4e:	be 01 00 00 00       	mov    $0x1,%esi
  204d53:	e8 88 0c 00 00       	callq  2059e0 <_ZN4core3fmt9Formatter12pad_integral17h4b39f03cb4a1838dE>
  204d58:	84 c0                	test   %al,%al
  204d5a:	0f 85 ec 00 00 00    	jne    204e4c <_ZN71_$LT$core..ops..range..Range$LT$Idx$GT$$u20$as$u20$core..fmt..Debug$GT$3fmt17h031be6fd84097705E+0x43c>
  204d60:	31 db                	xor    %ebx,%ebx
  204d62:	e9 e7 00 00 00       	jmpq   204e4e <_ZN71_$LT$core..ops..range..Range$LT$Idx$GT$$u20$as$u20$core..fmt..Debug$GT$3fmt17h031be6fd84097705E+0x43e>
  204d67:	4c 8d 84 24 80 00 00 	lea    0x80(%rsp),%r8
  204d6e:	00 
  204d6f:	45 31 c9             	xor    %r9d,%r9d
  204d72:	48 89 c8             	mov    %rcx,%rax
  204d75:	66 2e 0f 1f 84 00 00 	nopw   %cs:0x0(%rax,%rax,1)
  204d7c:	00 00 00 
  204d7f:	90                   	nop
  204d80:	48 c1 e8 04          	shr    $0x4,%rax
  204d84:	80 e1 0f             	and    $0xf,%cl
  204d87:	8d 51 30             	lea    0x30(%rcx),%edx
  204d8a:	8d 71 37             	lea    0x37(%rcx),%esi
  204d8d:	80 f9 0a             	cmp    $0xa,%cl
  204d90:	0f b6 ca             	movzbl %dl,%ecx
  204d93:	40 0f b6 d6          	movzbl %sil,%edx
  204d97:	0f 42 d1             	cmovb  %ecx,%edx
  204d9a:	41 88 50 ff          	mov    %dl,-0x1(%r8)
  204d9e:	49 ff c8             	dec    %r8
  204da1:	49 ff c1             	inc    %r9
  204da4:	48 85 c0             	test   %rax,%rax
  204da7:	48 89 c1             	mov    %rax,%rcx
  204daa:	75 d4                	jne    204d80 <_ZN71_$LT$core..ops..range..Range$LT$Idx$GT$$u20$as$u20$core..fmt..Debug$GT$3fmt17h031be6fd84097705E+0x370>
  204dac:	bf 80 00 00 00       	mov    $0x80,%edi
  204db1:	4c 29 cf             	sub    %r9,%rdi
  204db4:	48 81 ff 81 00 00 00 	cmp    $0x81,%rdi
  204dbb:	72 84                	jb     204d41 <_ZN71_$LT$core..ops..range..Range$LT$Idx$GT$$u20$as$u20$core..fmt..Debug$GT$3fmt17h031be6fd84097705E+0x331>
  204dbd:	be 80 00 00 00       	mov    $0x80,%esi
  204dc2:	ba c8 05 20 00       	mov    $0x2005c8,%edx
  204dc7:	e8 c4 fa ff ff       	callq  204890 <_ZN4core5slice5index26slice_start_index_len_fail17he140cef4d69855b6E>
  204dcc:	0f 0b                	ud2    
  204dce:	48 89 ca             	mov    %rcx,%rdx
  204dd1:	48 83 fa 63          	cmp    $0x63,%rdx
  204dd5:	7e 2b                	jle    204e02 <_ZN71_$LT$core..ops..range..Range$LT$Idx$GT$$u20$as$u20$core..fmt..Debug$GT$3fmt17h031be6fd84097705E+0x3f2>
  204dd7:	0f b7 ca             	movzwl %dx,%ecx
  204dda:	c1 e9 02             	shr    $0x2,%ecx
  204ddd:	69 c9 7b 14 00 00    	imul   $0x147b,%ecx,%ecx
  204de3:	c1 e9 11             	shr    $0x11,%ecx
  204de6:	6b f1 64             	imul   $0x64,%ecx,%esi
  204de9:	29 f2                	sub    %esi,%edx
  204deb:	0f b7 d2             	movzwl %dx,%edx
  204dee:	0f b7 94 12 e2 05 20 	movzwl 0x2005e2(%rdx,%rdx,1),%edx
  204df5:	00 
  204df6:	66 89 54 04 fe       	mov    %dx,-0x2(%rsp,%rax,1)
  204dfb:	48 83 c0 fe          	add    $0xfffffffffffffffe,%rax
  204dff:	48 89 ca             	mov    %rcx,%rdx
  204e02:	48 83 fa 0a          	cmp    $0xa,%rdx
  204e06:	7d 0c                	jge    204e14 <_ZN71_$LT$core..ops..range..Range$LT$Idx$GT$$u20$as$u20$core..fmt..Debug$GT$3fmt17h031be6fd84097705E+0x404>
  204e08:	80 c2 30             	add    $0x30,%dl
  204e0b:	88 54 04 ff          	mov    %dl,-0x1(%rsp,%rax,1)
  204e0f:	48 ff c8             	dec    %rax
  204e12:	eb 11                	jmp    204e25 <_ZN71_$LT$core..ops..range..Range$LT$Idx$GT$$u20$as$u20$core..fmt..Debug$GT$3fmt17h031be6fd84097705E+0x415>
  204e14:	0f b7 8c 12 e2 05 20 	movzwl 0x2005e2(%rdx,%rdx,1),%ecx
  204e1b:	00 
  204e1c:	66 89 4c 04 fe       	mov    %cx,-0x2(%rsp,%rax,1)
  204e21:	48 83 c0 fe          	add    $0xfffffffffffffffe,%rax
  204e25:	4c 8d 04 04          	lea    (%rsp,%rax,1),%r8
  204e29:	41 b9 27 00 00 00    	mov    $0x27,%r9d
  204e2f:	49 29 c1             	sub    %rax,%r9
  204e32:	31 db                	xor    %ebx,%ebx
  204e34:	ba 70 0f 20 00       	mov    $0x200f70,%edx
  204e39:	4c 89 ff             	mov    %r15,%rdi
  204e3c:	be 01 00 00 00       	mov    $0x1,%esi
  204e41:	31 c9                	xor    %ecx,%ecx
  204e43:	e8 98 0b 00 00       	callq  2059e0 <_ZN4core3fmt9Formatter12pad_integral17h4b39f03cb4a1838dE>
  204e48:	84 c0                	test   %al,%al
  204e4a:	74 02                	je     204e4e <_ZN71_$LT$core..ops..range..Range$LT$Idx$GT$$u20$as$u20$core..fmt..Debug$GT$3fmt17h031be6fd84097705E+0x43e>
  204e4c:	b3 01                	mov    $0x1,%bl
  204e4e:	89 d8                	mov    %ebx,%eax
  204e50:	48 81 c4 80 00 00 00 	add    $0x80,%rsp
  204e57:	5b                   	pop    %rbx
  204e58:	41 5e                	pop    %r14
  204e5a:	41 5f                	pop    %r15
  204e5c:	c3                   	retq   
  204e5d:	cc                   	int3   
  204e5e:	cc                   	int3   
  204e5f:	cc                   	int3   

0000000000204e60 <_ZN36_$LT$T$u20$as$u20$core..any..Any$GT$7type_id17h9d4d2e5236edc288E>:
  204e60:	48 b8 30 0b 83 35 7b 	movabs $0xd94bf67b35830b30,%rax
  204e67:	f6 4b d9 
  204e6a:	c3                   	retq   
  204e6b:	cc                   	int3   
  204e6c:	cc                   	int3   
  204e6d:	cc                   	int3   
  204e6e:	cc                   	int3   
  204e6f:	cc                   	int3   

0000000000204e70 <_ZN4core3str16slice_error_fail17h5a2cb913f36fc572E>:
  204e70:	48 81 ec d8 00 00 00 	sub    $0xd8,%rsp
  204e77:	48 89 94 24 c0 00 00 	mov    %rdx,0xc0(%rsp)
  204e7e:	00 
  204e7f:	48 89 8c 24 c8 00 00 	mov    %rcx,0xc8(%rsp)
  204e86:	00 
  204e87:	41 b1 01             	mov    $0x1,%r9b
  204e8a:	48 81 fe 01 01 00 00 	cmp    $0x101,%rsi
  204e91:	48 89 f0             	mov    %rsi,%rax
  204e94:	72 2e                	jb     204ec4 <_ZN4core3str16slice_error_fail17h5a2cb913f36fc572E+0x54>
  204e96:	41 b9 ff 00 00 00    	mov    $0xff,%r9d
  204e9c:	49 8d 41 01          	lea    0x1(%r9),%rax
  204ea0:	48 39 f0             	cmp    %rsi,%rax
  204ea3:	73 08                	jae    204ead <_ZN4core3str16slice_error_fail17h5a2cb913f36fc572E+0x3d>
  204ea5:	42 80 7c 0f 01 bf    	cmpb   $0xbf,0x1(%rdi,%r9,1)
  204eab:	7f 14                	jg     204ec1 <_ZN4core3str16slice_error_fail17h5a2cb913f36fc572E+0x51>
  204ead:	4c 89 c8             	mov    %r9,%rax
  204eb0:	48 83 e8 01          	sub    $0x1,%rax
  204eb4:	72 08                	jb     204ebe <_ZN4core3str16slice_error_fail17h5a2cb913f36fc572E+0x4e>
  204eb6:	4c 39 ce             	cmp    %r9,%rsi
  204eb9:	49 89 c1             	mov    %rax,%r9
  204ebc:	75 de                	jne    204e9c <_ZN4core3str16slice_error_fail17h5a2cb913f36fc572E+0x2c>
  204ebe:	48 ff c0             	inc    %rax
  204ec1:	45 31 c9             	xor    %r9d,%r9d
  204ec4:	48 89 bc 24 90 00 00 	mov    %rdi,0x90(%rsp)
  204ecb:	00 
  204ecc:	48 89 84 24 98 00 00 	mov    %rax,0x98(%rsp)
  204ed3:	00 
  204ed4:	41 ba 40 08 20 00    	mov    $0x200840,%r10d
  204eda:	41 bb 48 08 20 00    	mov    $0x200848,%r11d
  204ee0:	45 84 c9             	test   %r9b,%r9b
  204ee3:	4d 0f 45 da          	cmovne %r10,%r11
  204ee7:	41 80 f1 01          	xor    $0x1,%r9b
  204eeb:	41 0f b6 c1          	movzbl %r9b,%eax
  204eef:	48 8d 04 80          	lea    (%rax,%rax,4),%rax
  204ef3:	4c 89 9c 24 a0 00 00 	mov    %r11,0xa0(%rsp)
  204efa:	00 
  204efb:	48 89 84 24 a8 00 00 	mov    %rax,0xa8(%rsp)
  204f02:	00 
  204f03:	48 39 f2             	cmp    %rsi,%rdx
  204f06:	77 0c                	ja     204f14 <_ZN4core3str16slice_error_fail17h5a2cb913f36fc572E+0xa4>
  204f08:	48 39 f1             	cmp    %rsi,%rcx
  204f0b:	0f 86 8a 00 00 00    	jbe    204f9b <_ZN4core3str16slice_error_fail17h5a2cb913f36fc572E+0x12b>
  204f11:	48 89 ca             	mov    %rcx,%rdx
  204f14:	48 89 94 24 b0 00 00 	mov    %rdx,0xb0(%rsp)
  204f1b:	00 
  204f1c:	48 8d 84 24 b0 00 00 	lea    0xb0(%rsp),%rax
  204f23:	00 
  204f24:	48 89 44 24 40       	mov    %rax,0x40(%rsp)
  204f29:	48 c7 44 24 48 d0 54 	movq   $0x2054d0,0x48(%rsp)
  204f30:	20 00 
  204f32:	48 8d 84 24 90 00 00 	lea    0x90(%rsp),%rax
  204f39:	00 
  204f3a:	48 89 44 24 50       	mov    %rax,0x50(%rsp)
  204f3f:	48 c7 44 24 58 80 63 	movq   $0x206380,0x58(%rsp)
  204f46:	20 00 
  204f48:	48 8d 84 24 a0 00 00 	lea    0xa0(%rsp),%rax
  204f4f:	00 
  204f50:	48 89 44 24 60       	mov    %rax,0x60(%rsp)
  204f55:	48 c7 44 24 68 80 63 	movq   $0x206380,0x68(%rsp)
  204f5c:	20 00 
  204f5e:	48 c7 44 24 10 70 08 	movq   $0x200870,0x10(%rsp)
  204f65:	20 00 
  204f67:	48 c7 44 24 18 03 00 	movq   $0x3,0x18(%rsp)
  204f6e:	00 00 
  204f70:	48 c7 44 24 20 00 00 	movq   $0x0,0x20(%rsp)
  204f77:	00 00 
  204f79:	48 8d 44 24 40       	lea    0x40(%rsp),%rax
  204f7e:	48 89 44 24 30       	mov    %rax,0x30(%rsp)
  204f83:	48 c7 44 24 38 03 00 	movq   $0x3,0x38(%rsp)
  204f8a:	00 00 
  204f8c:	48 8d 7c 24 10       	lea    0x10(%rsp),%rdi
  204f91:	4c 89 c6             	mov    %r8,%rsi
  204f94:	e8 87 04 00 00       	callq  205420 <_ZN4core9panicking9panic_fmt17h1619cca849ead7e0E>
  204f99:	0f 0b                	ud2    
  204f9b:	48 39 ca             	cmp    %rcx,%rdx
  204f9e:	0f 86 95 00 00 00    	jbe    205039 <_ZN4core3str16slice_error_fail17h5a2cb913f36fc572E+0x1c9>
  204fa4:	48 8d 84 24 c0 00 00 	lea    0xc0(%rsp),%rax
  204fab:	00 
  204fac:	48 89 44 24 40       	mov    %rax,0x40(%rsp)
  204fb1:	48 c7 44 24 48 d0 54 	movq   $0x2054d0,0x48(%rsp)
  204fb8:	20 00 
  204fba:	48 8d 84 24 c8 00 00 	lea    0xc8(%rsp),%rax
  204fc1:	00 
  204fc2:	48 89 44 24 50       	mov    %rax,0x50(%rsp)
  204fc7:	48 c7 44 24 58 d0 54 	movq   $0x2054d0,0x58(%rsp)
  204fce:	20 00 
  204fd0:	48 8d 84 24 90 00 00 	lea    0x90(%rsp),%rax
  204fd7:	00 
  204fd8:	48 89 44 24 60       	mov    %rax,0x60(%rsp)
  204fdd:	48 c7 44 24 68 80 63 	movq   $0x206380,0x68(%rsp)
  204fe4:	20 00 
  204fe6:	48 8d 84 24 a0 00 00 	lea    0xa0(%rsp),%rax
  204fed:	00 
  204fee:	48 89 44 24 70       	mov    %rax,0x70(%rsp)
  204ff3:	48 c7 44 24 78 80 63 	movq   $0x206380,0x78(%rsp)
  204ffa:	20 00 
  204ffc:	48 c7 44 24 10 b8 08 	movq   $0x2008b8,0x10(%rsp)
  205003:	20 00 
  205005:	48 c7 44 24 18 04 00 	movq   $0x4,0x18(%rsp)
  20500c:	00 00 
  20500e:	48 c7 44 24 20 00 00 	movq   $0x0,0x20(%rsp)
  205015:	00 00 
  205017:	48 8d 44 24 40       	lea    0x40(%rsp),%rax
  20501c:	48 89 44 24 30       	mov    %rax,0x30(%rsp)
  205021:	48 c7 44 24 38 04 00 	movq   $0x4,0x38(%rsp)
  205028:	00 00 
  20502a:	48 8d 7c 24 10       	lea    0x10(%rsp),%rdi
  20502f:	4c 89 c6             	mov    %r8,%rsi
  205032:	e8 e9 03 00 00       	callq  205420 <_ZN4core9panicking9panic_fmt17h1619cca849ead7e0E>
  205037:	0f 0b                	ud2    
  205039:	48 85 d2             	test   %rdx,%rdx
  20503c:	74 0d                	je     20504b <_ZN4core3str16slice_error_fail17h5a2cb913f36fc572E+0x1db>
  20503e:	48 39 f2             	cmp    %rsi,%rdx
  205041:	74 08                	je     20504b <_ZN4core3str16slice_error_fail17h5a2cb913f36fc572E+0x1db>
  205043:	73 09                	jae    20504e <_ZN4core3str16slice_error_fail17h5a2cb913f36fc572E+0x1de>
  205045:	80 3c 17 c0          	cmpb   $0xc0,(%rdi,%rdx,1)
  205049:	7c 03                	jl     20504e <_ZN4core3str16slice_error_fail17h5a2cb913f36fc572E+0x1de>
  20504b:	48 89 ca             	mov    %rcx,%rdx
  20504e:	48 89 94 24 d0 00 00 	mov    %rdx,0xd0(%rsp)
  205055:	00 
  205056:	48 85 d2             	test   %rdx,%rdx
  205059:	74 28                	je     205083 <_ZN4core3str16slice_error_fail17h5a2cb913f36fc572E+0x213>
  20505b:	48 39 f2             	cmp    %rsi,%rdx
  20505e:	74 23                	je     205083 <_ZN4core3str16slice_error_fail17h5a2cb913f36fc572E+0x213>
  205060:	48 8d 46 01          	lea    0x1(%rsi),%rax
  205064:	48 39 f2             	cmp    %rsi,%rdx
  205067:	73 06                	jae    20506f <_ZN4core3str16slice_error_fail17h5a2cb913f36fc572E+0x1ff>
  205069:	80 3c 17 c0          	cmpb   $0xc0,(%rdi,%rdx,1)
  20506d:	7d 1a                	jge    205089 <_ZN4core3str16slice_error_fail17h5a2cb913f36fc572E+0x219>
  20506f:	48 8d 4a ff          	lea    -0x1(%rdx),%rcx
  205073:	48 83 fa 01          	cmp    $0x1,%rdx
  205077:	74 0d                	je     205086 <_ZN4core3str16slice_error_fail17h5a2cb913f36fc572E+0x216>
  205079:	48 39 d0             	cmp    %rdx,%rax
  20507c:	48 89 ca             	mov    %rcx,%rdx
  20507f:	75 e3                	jne    205064 <_ZN4core3str16slice_error_fail17h5a2cb913f36fc572E+0x1f4>
  205081:	eb 03                	jmp    205086 <_ZN4core3str16slice_error_fail17h5a2cb913f36fc572E+0x216>
  205083:	48 89 d1             	mov    %rdx,%rcx
  205086:	48 89 ca             	mov    %rcx,%rdx
  205089:	48 39 f2             	cmp    %rsi,%rdx
  20508c:	75 14                	jne    2050a2 <_ZN4core3str16slice_error_fail17h5a2cb913f36fc572E+0x232>
  20508e:	bf 81 07 20 00       	mov    $0x200781,%edi
  205093:	be 2b 00 00 00       	mov    $0x2b,%esi
  205098:	4c 89 c2             	mov    %r8,%rdx
  20509b:	e8 b0 02 00 00       	callq  205350 <_ZN4core9panicking5panic17h0d5eac47308c2a59E>
  2050a0:	0f 0b                	ud2    
  2050a2:	48 8d 04 17          	lea    (%rdi,%rdx,1),%rax
  2050a6:	0f b6 08             	movzbl (%rax),%ecx
  2050a9:	84 c9                	test   %cl,%cl
  2050ab:	78 0e                	js     2050bb <_ZN4core3str16slice_error_fail17h5a2cb913f36fc572E+0x24b>
  2050ad:	89 4c 24 0c          	mov    %ecx,0xc(%rsp)
  2050b1:	b8 01 00 00 00       	mov    $0x1,%eax
  2050b6:	e9 ac 00 00 00       	jmpq   205167 <_ZN4core3str16slice_error_fail17h5a2cb913f36fc572E+0x2f7>
  2050bb:	48 01 f7             	add    %rsi,%rdi
  2050be:	4c 8d 48 01          	lea    0x1(%rax),%r9
  2050c2:	31 f6                	xor    %esi,%esi
  2050c4:	49 39 f9             	cmp    %rdi,%r9
  2050c7:	49 89 f9             	mov    %rdi,%r9
  2050ca:	74 0e                	je     2050da <_ZN4core3str16slice_error_fail17h5a2cb913f36fc572E+0x26a>
  2050cc:	0f b6 70 01          	movzbl 0x1(%rax),%esi
  2050d0:	48 83 c0 02          	add    $0x2,%rax
  2050d4:	83 e6 3f             	and    $0x3f,%esi
  2050d7:	49 89 c1             	mov    %rax,%r9
  2050da:	89 c8                	mov    %ecx,%eax
  2050dc:	83 e0 1f             	and    $0x1f,%eax
  2050df:	80 f9 df             	cmp    $0xdf,%cl
  2050e2:	76 4c                	jbe    205130 <_ZN4core3str16slice_error_fail17h5a2cb913f36fc572E+0x2c0>
  2050e4:	45 31 db             	xor    %r11d,%r11d
  2050e7:	49 39 f9             	cmp    %rdi,%r9
  2050ea:	49 89 fa             	mov    %rdi,%r10
  2050ed:	74 0e                	je     2050fd <_ZN4core3str16slice_error_fail17h5a2cb913f36fc572E+0x28d>
  2050ef:	45 0f b6 19          	movzbl (%r9),%r11d
  2050f3:	49 ff c1             	inc    %r9
  2050f6:	41 83 e3 3f          	and    $0x3f,%r11d
  2050fa:	4d 89 ca             	mov    %r9,%r10
  2050fd:	c1 e6 06             	shl    $0x6,%esi
  205100:	44 09 de             	or     %r11d,%esi
  205103:	80 f9 f0             	cmp    $0xf0,%cl
  205106:	72 2d                	jb     205135 <_ZN4core3str16slice_error_fail17h5a2cb913f36fc572E+0x2c5>
  205108:	31 c9                	xor    %ecx,%ecx
  20510a:	49 39 fa             	cmp    %rdi,%r10
  20510d:	74 07                	je     205116 <_ZN4core3str16slice_error_fail17h5a2cb913f36fc572E+0x2a6>
  20510f:	41 0f b6 0a          	movzbl (%r10),%ecx
  205113:	83 e1 3f             	and    $0x3f,%ecx
  205116:	83 e0 07             	and    $0x7,%eax
  205119:	c1 e0 12             	shl    $0x12,%eax
  20511c:	c1 e6 06             	shl    $0x6,%esi
  20511f:	09 c6                	or     %eax,%esi
  205121:	09 ce                	or     %ecx,%esi
  205123:	81 fe 00 00 11 00    	cmp    $0x110000,%esi
  205129:	75 0f                	jne    20513a <_ZN4core3str16slice_error_fail17h5a2cb913f36fc572E+0x2ca>
  20512b:	e9 5e ff ff ff       	jmpq   20508e <_ZN4core3str16slice_error_fail17h5a2cb913f36fc572E+0x21e>
  205130:	c1 e0 06             	shl    $0x6,%eax
  205133:	eb 03                	jmp    205138 <_ZN4core3str16slice_error_fail17h5a2cb913f36fc572E+0x2c8>
  205135:	c1 e0 0c             	shl    $0xc,%eax
  205138:	09 c6                	or     %eax,%esi
  20513a:	89 74 24 0c          	mov    %esi,0xc(%rsp)
  20513e:	b8 01 00 00 00       	mov    $0x1,%eax
  205143:	81 fe 80 00 00 00    	cmp    $0x80,%esi
  205149:	72 1c                	jb     205167 <_ZN4core3str16slice_error_fail17h5a2cb913f36fc572E+0x2f7>
  20514b:	b8 02 00 00 00       	mov    $0x2,%eax
  205150:	81 fe 00 08 00 00    	cmp    $0x800,%esi
  205156:	72 0f                	jb     205167 <_ZN4core3str16slice_error_fail17h5a2cb913f36fc572E+0x2f7>
  205158:	81 fe 00 00 01 00    	cmp    $0x10000,%esi
  20515e:	b8 04 00 00 00       	mov    $0x4,%eax
  205163:	48 83 d8 00          	sbb    $0x0,%rax
  205167:	48 01 d0             	add    %rdx,%rax
  20516a:	48 89 94 24 b0 00 00 	mov    %rdx,0xb0(%rsp)
  205171:	00 
  205172:	48 89 84 24 b8 00 00 	mov    %rax,0xb8(%rsp)
  205179:	00 
  20517a:	48 8d 84 24 d0 00 00 	lea    0xd0(%rsp),%rax
  205181:	00 
  205182:	48 89 44 24 40       	mov    %rax,0x40(%rsp)
  205187:	48 c7 44 24 48 d0 54 	movq   $0x2054d0,0x48(%rsp)
  20518e:	20 00 
  205190:	48 8d 44 24 0c       	lea    0xc(%rsp),%rax
  205195:	48 89 44 24 50       	mov    %rax,0x50(%rsp)
  20519a:	48 c7 44 24 58 b0 60 	movq   $0x2060b0,0x58(%rsp)
  2051a1:	20 00 
  2051a3:	48 8d 84 24 b0 00 00 	lea    0xb0(%rsp),%rax
  2051aa:	00 
  2051ab:	48 89 44 24 60       	mov    %rax,0x60(%rsp)
  2051b0:	48 c7 44 24 68 10 4a 	movq   $0x204a10,0x68(%rsp)
  2051b7:	20 00 
  2051b9:	48 8d 84 24 90 00 00 	lea    0x90(%rsp),%rax
  2051c0:	00 
  2051c1:	48 89 44 24 70       	mov    %rax,0x70(%rsp)
  2051c6:	48 c7 44 24 78 80 63 	movq   $0x206380,0x78(%rsp)
  2051cd:	20 00 
  2051cf:	48 8d 84 24 a0 00 00 	lea    0xa0(%rsp),%rax
  2051d6:	00 
  2051d7:	48 89 84 24 80 00 00 	mov    %rax,0x80(%rsp)
  2051de:	00 
  2051df:	48 c7 84 24 88 00 00 	movq   $0x206380,0x88(%rsp)
  2051e6:	00 80 63 20 00 
  2051eb:	48 c7 44 24 10 28 09 	movq   $0x200928,0x10(%rsp)
  2051f2:	20 00 
  2051f4:	48 c7 44 24 18 05 00 	movq   $0x5,0x18(%rsp)
  2051fb:	00 00 
  2051fd:	48 c7 44 24 20 00 00 	movq   $0x0,0x20(%rsp)
  205204:	00 00 
  205206:	48 8d 44 24 40       	lea    0x40(%rsp),%rax
  20520b:	48 89 44 24 30       	mov    %rax,0x30(%rsp)
  205210:	48 c7 44 24 38 05 00 	movq   $0x5,0x38(%rsp)
  205217:	00 00 
  205219:	48 8d 7c 24 10       	lea    0x10(%rsp),%rdi
  20521e:	4c 89 c6             	mov    %r8,%rsi
  205221:	e8 fa 01 00 00       	callq  205420 <_ZN4core9panicking9panic_fmt17h1619cca849ead7e0E>
  205226:	0f 0b                	ud2    
  205228:	cc                   	int3   
  205229:	cc                   	int3   
  20522a:	cc                   	int3   
  20522b:	cc                   	int3   
  20522c:	cc                   	int3   
  20522d:	cc                   	int3   
  20522e:	cc                   	int3   
  20522f:	cc                   	int3   

0000000000205230 <_ZN4core7unicode9printable5check17h92b7e31da5aa2c88E.llvm.9653718370404087441>:
  205230:	53                   	push   %rbx
  205231:	48 85 d2             	test   %rdx,%rdx
  205234:	74 64                	je     20529a <_ZN4core7unicode9printable5check17h92b7e31da5aa2c88E.llvm.9653718370404087441+0x6a>
  205236:	41 89 fb             	mov    %edi,%r11d
  205239:	41 c1 eb 08          	shr    $0x8,%r11d
  20523d:	48 8d 14 56          	lea    (%rsi,%rdx,2),%rdx
  205241:	31 c0                	xor    %eax,%eax
  205243:	0f b6 5e 01          	movzbl 0x1(%rsi),%ebx
  205247:	44 38 1e             	cmp    %r11b,(%rsi)
  20524a:	48 8d 76 02          	lea    0x2(%rsi),%rsi
  20524e:	4c 8d 14 18          	lea    (%rax,%rbx,1),%r10
  205252:	0f 85 38 00 00 00    	jne    205290 <_ZN4core7unicode9printable5check17h92b7e31da5aa2c88E.llvm.9653718370404087441+0x60>
  205258:	49 39 c2             	cmp    %rax,%r10
  20525b:	0f 82 b3 00 00 00    	jb     205314 <_ZN4core7unicode9printable5check17h92b7e31da5aa2c88E.llvm.9653718370404087441+0xe4>
  205261:	4d 39 c2             	cmp    %r8,%r10
  205264:	0f 87 bc 00 00 00    	ja     205326 <_ZN4core7unicode9printable5check17h92b7e31da5aa2c88E.llvm.9653718370404087441+0xf6>
  20526a:	48 01 c8             	add    %rcx,%rax
  20526d:	0f 1f 00             	nopl   (%rax)
  205270:	48 85 db             	test   %rbx,%rbx
  205273:	0f 84 19 00 00 00    	je     205292 <_ZN4core7unicode9printable5check17h92b7e31da5aa2c88E.llvm.9653718370404087441+0x62>
  205279:	48 ff cb             	dec    %rbx
  20527c:	40 38 38             	cmp    %dil,(%rax)
  20527f:	48 8d 40 01          	lea    0x1(%rax),%rax
  205283:	0f 85 e7 ff ff ff    	jne    205270 <_ZN4core7unicode9printable5check17h92b7e31da5aa2c88E.llvm.9653718370404087441+0x40>
  205289:	e9 64 00 00 00       	jmpq   2052f2 <_ZN4core7unicode9printable5check17h92b7e31da5aa2c88E.llvm.9653718370404087441+0xc2>
  20528e:	66 90                	xchg   %ax,%ax
  205290:	77 08                	ja     20529a <_ZN4core7unicode9printable5check17h92b7e31da5aa2c88E.llvm.9653718370404087441+0x6a>
  205292:	48 39 d6             	cmp    %rdx,%rsi
  205295:	4c 89 d0             	mov    %r10,%rax
  205298:	75 a9                	jne    205243 <_ZN4core7unicode9printable5check17h92b7e31da5aa2c88E.llvm.9653718370404087441+0x13>
  20529a:	48 8b 4c 24 10       	mov    0x10(%rsp),%rcx
  20529f:	48 85 c9             	test   %rcx,%rcx
  2052a2:	0f 84 50 00 00 00    	je     2052f8 <_ZN4core7unicode9printable5check17h92b7e31da5aa2c88E.llvm.9653718370404087441+0xc8>
  2052a8:	4c 01 c9             	add    %r9,%rcx
  2052ab:	4c 89 ce             	mov    %r9,%rsi
  2052ae:	48 ff c6             	inc    %rsi
  2052b1:	0f b7 d7             	movzwl %di,%edx
  2052b4:	b0 01                	mov    $0x1,%al
  2052b6:	66 2e 0f 1f 84 00 00 	nopw   %cs:0x0(%rax,%rax,1)
  2052bd:	00 00 00 
  2052c0:	41 0f b6 39          	movzbl (%r9),%edi
  2052c4:	40 84 ff             	test   %dil,%dil
  2052c7:	79 13                	jns    2052dc <_ZN4core7unicode9printable5check17h92b7e31da5aa2c88E.llvm.9653718370404087441+0xac>
  2052c9:	48 39 ce             	cmp    %rcx,%rsi
  2052cc:	74 30                	je     2052fe <_ZN4core7unicode9printable5check17h92b7e31da5aa2c88E.llvm.9653718370404087441+0xce>
  2052ce:	0f b6 1e             	movzbl (%rsi),%ebx
  2052d1:	48 ff c6             	inc    %rsi
  2052d4:	83 e7 7f             	and    $0x7f,%edi
  2052d7:	c1 e7 08             	shl    $0x8,%edi
  2052da:	09 df                	or     %ebx,%edi
  2052dc:	49 89 f1             	mov    %rsi,%r9
  2052df:	29 fa                	sub    %edi,%edx
  2052e1:	78 0b                	js     2052ee <_ZN4core7unicode9printable5check17h92b7e31da5aa2c88E.llvm.9653718370404087441+0xbe>
  2052e3:	34 01                	xor    $0x1,%al
  2052e5:	49 8d 71 01          	lea    0x1(%r9),%rsi
  2052e9:	49 39 c9             	cmp    %rcx,%r9
  2052ec:	75 d2                	jne    2052c0 <_ZN4core7unicode9printable5check17h92b7e31da5aa2c88E.llvm.9653718370404087441+0x90>
  2052ee:	24 01                	and    $0x1,%al
  2052f0:	5b                   	pop    %rbx
  2052f1:	c3                   	retq   
  2052f2:	31 c0                	xor    %eax,%eax
  2052f4:	24 01                	and    $0x1,%al
  2052f6:	5b                   	pop    %rbx
  2052f7:	c3                   	retq   
  2052f8:	b0 01                	mov    $0x1,%al
  2052fa:	24 01                	and    $0x1,%al
  2052fc:	5b                   	pop    %rbx
  2052fd:	c3                   	retq   
  2052fe:	bf 81 07 20 00       	mov    $0x200781,%edi
  205303:	be 2b 00 00 00       	mov    $0x2b,%esi
  205308:	ba 10 0a 20 00       	mov    $0x200a10,%edx
  20530d:	e8 3e 00 00 00       	callq  205350 <_ZN4core9panicking5panic17h0d5eac47308c2a59E>
  205312:	0f 0b                	ud2    
  205314:	ba f8 09 20 00       	mov    $0x2009f8,%edx
  205319:	48 89 c7             	mov    %rax,%rdi
  20531c:	4c 89 d6             	mov    %r10,%rsi
  20531f:	e8 6c f6 ff ff       	callq  204990 <_ZN4core5slice5index22slice_index_order_fail17hd00cb0dbceb20698E>
  205324:	0f 0b                	ud2    
  205326:	ba f8 09 20 00       	mov    $0x2009f8,%edx
  20532b:	4c 89 d7             	mov    %r10,%rdi
  20532e:	4c 89 c6             	mov    %r8,%rsi
  205331:	e8 da f5 ff ff       	callq  204910 <_ZN4core5slice5index24slice_end_index_len_fail17h675c34485e96ecc6E>
  205336:	0f 0b                	ud2    
  205338:	cc                   	int3   
  205339:	cc                   	int3   
  20533a:	cc                   	int3   
  20533b:	cc                   	int3   
  20533c:	cc                   	int3   
  20533d:	cc                   	int3   
  20533e:	cc                   	int3   
  20533f:	cc                   	int3   

0000000000205340 <_ZN4core3ptr13drop_in_place17h41762d3fe4e6ddaeE>:
  205340:	c3                   	retq   
  205341:	cc                   	int3   
  205342:	cc                   	int3   
  205343:	cc                   	int3   
  205344:	cc                   	int3   
  205345:	cc                   	int3   
  205346:	cc                   	int3   
  205347:	cc                   	int3   
  205348:	cc                   	int3   
  205349:	cc                   	int3   
  20534a:	cc                   	int3   
  20534b:	cc                   	int3   
  20534c:	cc                   	int3   
  20534d:	cc                   	int3   
  20534e:	cc                   	int3   
  20534f:	cc                   	int3   

0000000000205350 <_ZN4core9panicking5panic17h0d5eac47308c2a59E>:
  205350:	48 83 ec 48          	sub    $0x48,%rsp
  205354:	48 89 7c 24 08       	mov    %rdi,0x8(%rsp)
  205359:	48 89 74 24 10       	mov    %rsi,0x10(%rsp)
  20535e:	48 8d 44 24 08       	lea    0x8(%rsp),%rax
  205363:	48 89 44 24 18       	mov    %rax,0x18(%rsp)
  205368:	48 c7 44 24 20 01 00 	movq   $0x1,0x20(%rsp)
  20536f:	00 00 
  205371:	48 c7 44 24 28 00 00 	movq   $0x0,0x28(%rsp)
  205378:	00 00 
  20537a:	48 c7 44 24 38 70 0f 	movq   $0x200f70,0x38(%rsp)
  205381:	20 00 
  205383:	48 c7 44 24 40 00 00 	movq   $0x0,0x40(%rsp)
  20538a:	00 00 
  20538c:	48 8d 7c 24 18       	lea    0x18(%rsp),%rdi
  205391:	48 89 d6             	mov    %rdx,%rsi
  205394:	e8 87 00 00 00       	callq  205420 <_ZN4core9panicking9panic_fmt17h1619cca849ead7e0E>
  205399:	0f 0b                	ud2    
  20539b:	cc                   	int3   
  20539c:	cc                   	int3   
  20539d:	cc                   	int3   
  20539e:	cc                   	int3   
  20539f:	cc                   	int3   

00000000002053a0 <_ZN4core9panicking18panic_bounds_check17hb957c28718fb58e0E>:
  2053a0:	48 83 ec 68          	sub    $0x68,%rsp
  2053a4:	48 89 7c 24 08       	mov    %rdi,0x8(%rsp)
  2053a9:	48 89 74 24 10       	mov    %rsi,0x10(%rsp)
  2053ae:	48 8d 44 24 10       	lea    0x10(%rsp),%rax
  2053b3:	48 89 44 24 18       	mov    %rax,0x18(%rsp)
  2053b8:	48 c7 44 24 20 d0 54 	movq   $0x2054d0,0x20(%rsp)
  2053bf:	20 00 
  2053c1:	48 8d 44 24 08       	lea    0x8(%rsp),%rax
  2053c6:	48 89 44 24 28       	mov    %rax,0x28(%rsp)
  2053cb:	48 c7 44 24 30 d0 54 	movq   $0x2054d0,0x30(%rsp)
  2053d2:	20 00 
  2053d4:	48 c7 44 24 38 c8 0f 	movq   $0x200fc8,0x38(%rsp)
  2053db:	20 00 
  2053dd:	48 c7 44 24 40 02 00 	movq   $0x2,0x40(%rsp)
  2053e4:	00 00 
  2053e6:	48 c7 44 24 48 00 00 	movq   $0x0,0x48(%rsp)
  2053ed:	00 00 
  2053ef:	48 8d 44 24 18       	lea    0x18(%rsp),%rax
  2053f4:	48 89 44 24 58       	mov    %rax,0x58(%rsp)
  2053f9:	48 c7 44 24 60 02 00 	movq   $0x2,0x60(%rsp)
  205400:	00 00 
  205402:	48 8d 7c 24 38       	lea    0x38(%rsp),%rdi
  205407:	48 89 d6             	mov    %rdx,%rsi
  20540a:	e8 11 00 00 00       	callq  205420 <_ZN4core9panicking9panic_fmt17h1619cca849ead7e0E>
  20540f:	0f 0b                	ud2    
  205411:	cc                   	int3   
  205412:	cc                   	int3   
  205413:	cc                   	int3   
  205414:	cc                   	int3   
  205415:	cc                   	int3   
  205416:	cc                   	int3   
  205417:	cc                   	int3   
  205418:	cc                   	int3   
  205419:	cc                   	int3   
  20541a:	cc                   	int3   
  20541b:	cc                   	int3   
  20541c:	cc                   	int3   
  20541d:	cc                   	int3   
  20541e:	cc                   	int3   
  20541f:	cc                   	int3   

0000000000205420 <_ZN4core9panicking9panic_fmt17h1619cca849ead7e0E>:
  205420:	48 83 ec 28          	sub    $0x28,%rsp
  205424:	48 c7 44 24 08 70 0f 	movq   $0x200f70,0x8(%rsp)
  20542b:	20 00 
  20542d:	48 c7 44 24 10 70 0f 	movq   $0x200f70,0x10(%rsp)
  205434:	20 00 
  205436:	48 89 7c 24 18       	mov    %rdi,0x18(%rsp)
  20543b:	48 89 74 24 20       	mov    %rsi,0x20(%rsp)
  205440:	48 8d 7c 24 08       	lea    0x8(%rsp),%rdi
  205445:	e8 46 ee ff ff       	callq  204290 <rust_begin_unwind>
  20544a:	0f 0b                	ud2    
  20544c:	cc                   	int3   
  20544d:	cc                   	int3   
  20544e:	cc                   	int3   
  20544f:	cc                   	int3   

0000000000205450 <_ZN4core6result13unwrap_failed17h333665f0a8190f14E>:
  205450:	48 83 ec 78          	sub    $0x78,%rsp
  205454:	48 89 7c 24 08       	mov    %rdi,0x8(%rsp)
  205459:	48 89 74 24 10       	mov    %rsi,0x10(%rsp)
  20545e:	48 89 54 24 18       	mov    %rdx,0x18(%rsp)
  205463:	48 89 4c 24 20       	mov    %rcx,0x20(%rsp)
  205468:	48 8d 44 24 08       	lea    0x8(%rsp),%rax
  20546d:	48 89 44 24 28       	mov    %rax,0x28(%rsp)
  205472:	48 c7 44 24 30 80 63 	movq   $0x206380,0x30(%rsp)
  205479:	20 00 
  20547b:	48 8d 44 24 18       	lea    0x18(%rsp),%rax
  205480:	48 89 44 24 38       	mov    %rax,0x38(%rsp)
  205485:	48 c7 44 24 40 70 63 	movq   $0x206370,0x40(%rsp)
  20548c:	20 00 
  20548e:	48 c7 44 24 48 f0 0f 	movq   $0x200ff0,0x48(%rsp)
  205495:	20 00 
  205497:	48 c7 44 24 50 02 00 	movq   $0x2,0x50(%rsp)
  20549e:	00 00 
  2054a0:	48 c7 44 24 58 00 00 	movq   $0x0,0x58(%rsp)
  2054a7:	00 00 
  2054a9:	48 8d 44 24 28       	lea    0x28(%rsp),%rax
  2054ae:	48 89 44 24 68       	mov    %rax,0x68(%rsp)
  2054b3:	48 c7 44 24 70 02 00 	movq   $0x2,0x70(%rsp)
  2054ba:	00 00 
  2054bc:	48 8d 7c 24 48       	lea    0x48(%rsp),%rdi
  2054c1:	4c 89 c6             	mov    %r8,%rsi
  2054c4:	e8 57 ff ff ff       	callq  205420 <_ZN4core9panicking9panic_fmt17h1619cca849ead7e0E>
  2054c9:	0f 0b                	ud2    
  2054cb:	cc                   	int3   
  2054cc:	cc                   	int3   
  2054cd:	cc                   	int3   
  2054ce:	cc                   	int3   
  2054cf:	cc                   	int3   

00000000002054d0 <_ZN4core3fmt3num3imp52_$LT$impl$u20$core..fmt..Display$u20$for$u20$u64$GT$3fmt17h68e02be05b0464d5E>:
  2054d0:	48 83 ec 28          	sub    $0x28,%rsp
  2054d4:	49 89 f2             	mov    %rsi,%r10
  2054d7:	4c 8b 0f             	mov    (%rdi),%r9
  2054da:	b9 27 00 00 00       	mov    $0x27,%ecx
  2054df:	49 81 f9 10 27 00 00 	cmp    $0x2710,%r9
  2054e6:	0f 82 b0 00 00 00    	jb     20559c <_ZN4core3fmt3num3imp52_$LT$impl$u20$core..fmt..Display$u20$for$u20$u64$GT$3fmt17h68e02be05b0464d5E+0xcc>
  2054ec:	be 27 00 00 00       	mov    $0x27,%esi
  2054f1:	49 b8 4b 59 86 38 d6 	movabs $0x346dc5d63886594b,%r8
  2054f8:	c5 6d 34 
  2054fb:	0f 1f 44 00 00       	nopl   0x0(%rax,%rax,1)
  205500:	4c 89 c8             	mov    %r9,%rax
  205503:	49 f7 e0             	mul    %r8
  205506:	48 c1 ea 0b          	shr    $0xb,%rdx
  20550a:	69 c2 10 27 00 00    	imul   $0x2710,%edx,%eax
  205510:	44 89 c9             	mov    %r9d,%ecx
  205513:	29 c1                	sub    %eax,%ecx
  205515:	0f b7 c1             	movzwl %cx,%eax
  205518:	c1 e8 02             	shr    $0x2,%eax
  20551b:	69 c0 7b 14 00 00    	imul   $0x147b,%eax,%eax
  205521:	c1 e8 11             	shr    $0x11,%eax
  205524:	6b f8 64             	imul   $0x64,%eax,%edi
  205527:	29 f9                	sub    %edi,%ecx
  205529:	0f b7 f9             	movzwl %cx,%edi
  20552c:	48 8d 4e fc          	lea    -0x4(%rsi),%rcx
  205530:	0f b7 84 00 e2 05 20 	movzwl 0x2005e2(%rax,%rax,1),%eax
  205537:	00 
  205538:	66 89 44 34 fc       	mov    %ax,-0x4(%rsp,%rsi,1)
  20553d:	0f b7 84 3f e2 05 20 	movzwl 0x2005e2(%rdi,%rdi,1),%eax
  205544:	00 
  205545:	66 89 44 34 fe       	mov    %ax,-0x2(%rsp,%rsi,1)
  20554a:	49 81 f9 ff e0 f5 05 	cmp    $0x5f5e0ff,%r9
  205551:	49 89 d1             	mov    %rdx,%r9
  205554:	48 89 ce             	mov    %rcx,%rsi
  205557:	77 a7                	ja     205500 <_ZN4core3fmt3num3imp52_$LT$impl$u20$core..fmt..Display$u20$for$u20$u64$GT$3fmt17h68e02be05b0464d5E+0x30>
  205559:	48 83 fa 63          	cmp    $0x63,%rdx
  20555d:	7e 2b                	jle    20558a <_ZN4core3fmt3num3imp52_$LT$impl$u20$core..fmt..Display$u20$for$u20$u64$GT$3fmt17h68e02be05b0464d5E+0xba>
  20555f:	0f b7 c2             	movzwl %dx,%eax
  205562:	c1 e8 02             	shr    $0x2,%eax
  205565:	69 c0 7b 14 00 00    	imul   $0x147b,%eax,%eax
  20556b:	c1 e8 11             	shr    $0x11,%eax
  20556e:	6b f0 64             	imul   $0x64,%eax,%esi
  205571:	29 f2                	sub    %esi,%edx
  205573:	0f b7 d2             	movzwl %dx,%edx
  205576:	0f b7 94 12 e2 05 20 	movzwl 0x2005e2(%rdx,%rdx,1),%edx
  20557d:	00 
  20557e:	66 89 54 0c fe       	mov    %dx,-0x2(%rsp,%rcx,1)
  205583:	48 83 c1 fe          	add    $0xfffffffffffffffe,%rcx
  205587:	48 89 c2             	mov    %rax,%rdx
  20558a:	48 83 fa 0a          	cmp    $0xa,%rdx
  20558e:	7d 17                	jge    2055a7 <_ZN4core3fmt3num3imp52_$LT$impl$u20$core..fmt..Display$u20$for$u20$u64$GT$3fmt17h68e02be05b0464d5E+0xd7>
  205590:	80 c2 30             	add    $0x30,%dl
  205593:	88 54 0c ff          	mov    %dl,-0x1(%rsp,%rcx,1)
  205597:	48 ff c9             	dec    %rcx
  20559a:	eb 1c                	jmp    2055b8 <_ZN4core3fmt3num3imp52_$LT$impl$u20$core..fmt..Display$u20$for$u20$u64$GT$3fmt17h68e02be05b0464d5E+0xe8>
  20559c:	4c 89 ca             	mov    %r9,%rdx
  20559f:	48 83 fa 63          	cmp    $0x63,%rdx
  2055a3:	7f ba                	jg     20555f <_ZN4core3fmt3num3imp52_$LT$impl$u20$core..fmt..Display$u20$for$u20$u64$GT$3fmt17h68e02be05b0464d5E+0x8f>
  2055a5:	eb e3                	jmp    20558a <_ZN4core3fmt3num3imp52_$LT$impl$u20$core..fmt..Display$u20$for$u20$u64$GT$3fmt17h68e02be05b0464d5E+0xba>
  2055a7:	0f b7 84 12 e2 05 20 	movzwl 0x2005e2(%rdx,%rdx,1),%eax
  2055ae:	00 
  2055af:	66 89 44 0c fe       	mov    %ax,-0x2(%rsp,%rcx,1)
  2055b4:	48 83 c1 fe          	add    $0xfffffffffffffffe,%rcx
  2055b8:	4c 8d 04 0c          	lea    (%rsp,%rcx,1),%r8
  2055bc:	41 b9 27 00 00 00    	mov    $0x27,%r9d
  2055c2:	49 29 c9             	sub    %rcx,%r9
  2055c5:	ba 70 0f 20 00       	mov    $0x200f70,%edx
  2055ca:	4c 89 d7             	mov    %r10,%rdi
  2055cd:	be 01 00 00 00       	mov    $0x1,%esi
  2055d2:	31 c9                	xor    %ecx,%ecx
  2055d4:	e8 07 04 00 00       	callq  2059e0 <_ZN4core3fmt9Formatter12pad_integral17h4b39f03cb4a1838dE>
  2055d9:	48 83 c4 28          	add    $0x28,%rsp
  2055dd:	c3                   	retq   
  2055de:	cc                   	int3   
  2055df:	cc                   	int3   

00000000002055e0 <_ZN4core7unicode12unicode_data15grapheme_extend6lookup17h032a8f7d39eb277cE>:
  2055e0:	50                   	push   %rax
  2055e1:	89 f9                	mov    %edi,%ecx
  2055e3:	c1 e1 0b             	shl    $0xb,%ecx
  2055e6:	31 c0                	xor    %eax,%eax
  2055e8:	81 ff 24 0d 01 00    	cmp    $0x10d24,%edi
  2055ee:	ba 0f 00 00 00       	mov    $0xf,%edx
  2055f3:	48 0f 42 d0          	cmovb  %rax,%rdx
  2055f7:	48 8d 42 08          	lea    0x8(%rdx),%rax
  2055fb:	8b 34 95 00 11 20 00 	mov    0x201100(,%rdx,4),%esi
  205602:	c1 e6 0b             	shl    $0xb,%esi
  205605:	39 ce                	cmp    %ecx,%esi
  205607:	48 0f 47 c2          	cmova  %rdx,%rax
  20560b:	48 8d 50 04          	lea    0x4(%rax),%rdx
  20560f:	8b 34 85 f0 10 20 00 	mov    0x2010f0(,%rax,4),%esi
  205616:	c1 e6 0b             	shl    $0xb,%esi
  205619:	39 ce                	cmp    %ecx,%esi
  20561b:	48 0f 47 d0          	cmova  %rax,%rdx
  20561f:	48 8d 42 02          	lea    0x2(%rdx),%rax
  205623:	8b 34 95 e8 10 20 00 	mov    0x2010e8(,%rdx,4),%esi
  20562a:	c1 e6 0b             	shl    $0xb,%esi
  20562d:	39 ce                	cmp    %ecx,%esi
  20562f:	48 0f 47 c2          	cmova  %rdx,%rax
  205633:	48 8d 50 01          	lea    0x1(%rax),%rdx
  205637:	8b 34 85 e4 10 20 00 	mov    0x2010e4(,%rax,4),%esi
  20563e:	c1 e6 0b             	shl    $0xb,%esi
  205641:	39 ce                	cmp    %ecx,%esi
  205643:	48 0f 47 d0          	cmova  %rax,%rdx
  205647:	8b 34 95 e0 10 20 00 	mov    0x2010e0(,%rdx,4),%esi
  20564e:	c1 e6 0b             	shl    $0xb,%esi
  205651:	31 c0                	xor    %eax,%eax
  205653:	39 ce                	cmp    %ecx,%esi
  205655:	0f 94 c0             	sete   %al
  205658:	48 83 d0 00          	adc    $0x0,%rax
  20565c:	48 01 d0             	add    %rdx,%rax
  20565f:	48 83 f8 1e          	cmp    $0x1e,%rax
  205663:	0f 87 9c 00 00 00    	ja     205705 <_ZN4core7unicode12unicode_data15grapheme_extend6lookup17h032a8f7d39eb277cE+0x125>
  205669:	41 b8 b1 02 00 00    	mov    $0x2b1,%r8d
  20566f:	48 83 f8 1e          	cmp    $0x1e,%rax
  205673:	74 0c                	je     205681 <_ZN4core7unicode12unicode_data15grapheme_extend6lookup17h032a8f7d39eb277cE+0xa1>
  205675:	44 8b 04 85 e4 10 20 	mov    0x2010e4(,%rax,4),%r8d
  20567c:	00 
  20567d:	49 c1 e8 15          	shr    $0x15,%r8
  205681:	31 f6                	xor    %esi,%esi
  205683:	48 89 c1             	mov    %rax,%rcx
  205686:	48 83 e9 01          	sub    $0x1,%rcx
  20568a:	72 16                	jb     2056a2 <_ZN4core7unicode12unicode_data15grapheme_extend6lookup17h032a8f7d39eb277cE+0xc2>
  20568c:	48 83 f9 1f          	cmp    $0x1f,%rcx
  205690:	0f 83 83 00 00 00    	jae    205719 <_ZN4core7unicode12unicode_data15grapheme_extend6lookup17h032a8f7d39eb277cE+0x139>
  205696:	be ff ff 1f 00       	mov    $0x1fffff,%esi
  20569b:	23 34 8d e0 10 20 00 	and    0x2010e0(,%rcx,4),%esi
  2056a2:	8b 04 85 e0 10 20 00 	mov    0x2010e0(,%rax,4),%eax
  2056a9:	48 c1 e8 15          	shr    $0x15,%rax
  2056ad:	48 89 c1             	mov    %rax,%rcx
  2056b0:	48 f7 d1             	not    %rcx
  2056b3:	4c 01 c1             	add    %r8,%rcx
  2056b6:	74 35                	je     2056ed <_ZN4core7unicode12unicode_data15grapheme_extend6lookup17h032a8f7d39eb277cE+0x10d>
  2056b8:	29 f7                	sub    %esi,%edi
  2056ba:	48 3d b1 02 00 00    	cmp    $0x2b1,%rax
  2056c0:	b9 b1 02 00 00       	mov    $0x2b1,%ecx
  2056c5:	48 0f 47 c8          	cmova  %rax,%rcx
  2056c9:	49 ff c8             	dec    %r8
  2056cc:	31 f6                	xor    %esi,%esi
  2056ce:	66 90                	xchg   %ax,%ax
  2056d0:	48 39 c1             	cmp    %rax,%rcx
  2056d3:	74 1c                	je     2056f1 <_ZN4core7unicode12unicode_data15grapheme_extend6lookup17h032a8f7d39eb277cE+0x111>
  2056d5:	0f b6 90 5c 11 20 00 	movzbl 0x20115c(%rax),%edx
  2056dc:	01 d6                	add    %edx,%esi
  2056de:	39 fe                	cmp    %edi,%esi
  2056e0:	77 0b                	ja     2056ed <_ZN4core7unicode12unicode_data15grapheme_extend6lookup17h032a8f7d39eb277cE+0x10d>
  2056e2:	48 ff c0             	inc    %rax
  2056e5:	49 39 c0             	cmp    %rax,%r8
  2056e8:	75 e6                	jne    2056d0 <_ZN4core7unicode12unicode_data15grapheme_extend6lookup17h032a8f7d39eb277cE+0xf0>
  2056ea:	4c 89 c0             	mov    %r8,%rax
  2056ed:	24 01                	and    $0x1,%al
  2056ef:	59                   	pop    %rcx
  2056f0:	c3                   	retq   
  2056f1:	be b1 02 00 00       	mov    $0x2b1,%esi
  2056f6:	ba b0 10 20 00       	mov    $0x2010b0,%edx
  2056fb:	48 89 cf             	mov    %rcx,%rdi
  2056fe:	e8 9d fc ff ff       	callq  2053a0 <_ZN4core9panicking18panic_bounds_check17hb957c28718fb58e0E>
  205703:	0f 0b                	ud2    
  205705:	be 1f 00 00 00       	mov    $0x1f,%esi
  20570a:	ba 98 10 20 00       	mov    $0x201098,%edx
  20570f:	48 89 c7             	mov    %rax,%rdi
  205712:	e8 89 fc ff ff       	callq  2053a0 <_ZN4core9panicking18panic_bounds_check17hb957c28718fb58e0E>
  205717:	0f 0b                	ud2    
  205719:	be 1f 00 00 00       	mov    $0x1f,%esi
  20571e:	ba c8 10 20 00       	mov    $0x2010c8,%edx
  205723:	48 89 cf             	mov    %rcx,%rdi
  205726:	e8 75 fc ff ff       	callq  2053a0 <_ZN4core9panicking18panic_bounds_check17hb957c28718fb58e0E>
  20572b:	0f 0b                	ud2    
  20572d:	cc                   	int3   
  20572e:	cc                   	int3   
  20572f:	cc                   	int3   

0000000000205730 <_ZN4core3ops8function6FnOnce9call_once17h374c152cdf64647bE.llvm.15408935156180552286>:
  205730:	48 8b 07             	mov    (%rdi),%rax
  205733:	66 2e 0f 1f 84 00 00 	nopw   %cs:0x0(%rax,%rax,1)
  20573a:	00 00 00 
  20573d:	0f 1f 00             	nopl   (%rax)
  205740:	eb fe                	jmp    205740 <_ZN4core3ops8function6FnOnce9call_once17h374c152cdf64647bE.llvm.15408935156180552286+0x10>
  205742:	cc                   	int3   
  205743:	cc                   	int3   
  205744:	cc                   	int3   
  205745:	cc                   	int3   
  205746:	cc                   	int3   
  205747:	cc                   	int3   
  205748:	cc                   	int3   
  205749:	cc                   	int3   
  20574a:	cc                   	int3   
  20574b:	cc                   	int3   
  20574c:	cc                   	int3   
  20574d:	cc                   	int3   
  20574e:	cc                   	int3   
  20574f:	cc                   	int3   

0000000000205750 <_ZN4core3ptr13drop_in_place17h4ddee13bb512919cE.llvm.15408935156180552286>:
  205750:	c3                   	retq   
  205751:	cc                   	int3   
  205752:	cc                   	int3   
  205753:	cc                   	int3   
  205754:	cc                   	int3   
  205755:	cc                   	int3   
  205756:	cc                   	int3   
  205757:	cc                   	int3   
  205758:	cc                   	int3   
  205759:	cc                   	int3   
  20575a:	cc                   	int3   
  20575b:	cc                   	int3   
  20575c:	cc                   	int3   
  20575d:	cc                   	int3   
  20575e:	cc                   	int3   
  20575f:	cc                   	int3   

0000000000205760 <_ZN4core3fmt5write17h9e810da9ad2d3eaaE>:
  205760:	55                   	push   %rbp
  205761:	41 57                	push   %r15
  205763:	41 56                	push   %r14
  205765:	41 55                	push   %r13
  205767:	41 54                	push   %r12
  205769:	53                   	push   %rbx
  20576a:	48 83 ec 58          	sub    $0x58,%rsp
  20576e:	48 89 d3             	mov    %rdx,%rbx
  205771:	48 89 f1             	mov    %rsi,%rcx
  205774:	48 b8 00 00 00 00 20 	movabs $0x2000000000,%rax
  20577b:	00 00 00 
  20577e:	48 89 44 24 40       	mov    %rax,0x40(%rsp)
  205783:	c6 44 24 48 03       	movb   $0x3,0x48(%rsp)
  205788:	48 c7 44 24 10 00 00 	movq   $0x0,0x10(%rsp)
  20578f:	00 00 
  205791:	48 c7 44 24 20 00 00 	movq   $0x0,0x20(%rsp)
  205798:	00 00 
  20579a:	48 89 7c 24 30       	mov    %rdi,0x30(%rsp)
  20579f:	48 89 74 24 38       	mov    %rsi,0x38(%rsp)
  2057a4:	48 8b 6a 10          	mov    0x10(%rdx),%rbp
  2057a8:	48 85 ed             	test   %rbp,%rbp
  2057ab:	0f 84 62 01 00 00    	je     205913 <_ZN4core3fmt5write17h9e810da9ad2d3eaaE+0x1b3>
  2057b1:	48 6b 43 18 38       	imul   $0x38,0x18(%rbx),%rax
  2057b6:	4c 8b 23             	mov    (%rbx),%r12
  2057b9:	48 8b 73 08          	mov    0x8(%rbx),%rsi
  2057bd:	48 c1 e8 03          	shr    $0x3,%rax
  2057c1:	48 ba 93 24 49 92 24 	movabs $0x2492492492492493,%rdx
  2057c8:	49 92 24 
  2057cb:	48 f7 e2             	mul    %rdx
  2057ce:	49 89 d7             	mov    %rdx,%r15
  2057d1:	48 39 f2             	cmp    %rsi,%rdx
  2057d4:	4c 0f 47 fe          	cmova  %rsi,%r15
  2057d8:	4d 85 ff             	test   %r15,%r15
  2057db:	0f 84 aa 01 00 00    	je     20598b <_ZN4core3fmt5write17h9e810da9ad2d3eaaE+0x22b>
  2057e1:	48 89 74 24 08       	mov    %rsi,0x8(%rsp)
  2057e6:	49 8b 34 24          	mov    (%r12),%rsi
  2057ea:	49 8b 54 24 08       	mov    0x8(%r12),%rdx
  2057ef:	ff 51 18             	callq  *0x18(%rcx)
  2057f2:	84 c0                	test   %al,%al
  2057f4:	0f 85 c3 01 00 00    	jne    2059bd <_ZN4core3fmt5write17h9e810da9ad2d3eaaE+0x25d>
  2057fa:	48 8b 5b 20          	mov    0x20(%rbx),%rbx
  2057fe:	48 83 c5 30          	add    $0x30,%rbp
  205802:	4c 89 f8             	mov    %r15,%rax
  205805:	48 c1 e0 04          	shl    $0x4,%rax
  205809:	48 89 44 24 50       	mov    %rax,0x50(%rsp)
  20580e:	45 31 f6             	xor    %r14d,%r14d
  205811:	66 2e 0f 1f 84 00 00 	nopw   %cs:0x0(%rax,%rax,1)
  205818:	00 00 00 
  20581b:	0f 1f 44 00 00       	nopl   0x0(%rax,%rax,1)
  205820:	8b 45 f8             	mov    -0x8(%rbp),%eax
  205823:	89 44 24 44          	mov    %eax,0x44(%rsp)
  205827:	0f b6 45 00          	movzbl 0x0(%rbp),%eax
  20582b:	88 44 24 48          	mov    %al,0x48(%rsp)
  20582f:	8b 45 fc             	mov    -0x4(%rbp),%eax
  205832:	89 44 24 40          	mov    %eax,0x40(%rsp)
  205836:	48 8b 4d e8          	mov    -0x18(%rbp),%rcx
  20583a:	48 8b 45 f0          	mov    -0x10(%rbp),%rax
  20583e:	48 85 c9             	test   %rcx,%rcx
  205841:	74 1d                	je     205860 <_ZN4core3fmt5write17h9e810da9ad2d3eaaE+0x100>
  205843:	48 83 f9 02          	cmp    $0x2,%rcx
  205847:	74 27                	je     205870 <_ZN4core3fmt5write17h9e810da9ad2d3eaaE+0x110>
  205849:	48 c1 e0 04          	shl    $0x4,%rax
  20584d:	b9 30 57 20 00       	mov    $0x205730,%ecx
  205852:	48 39 4c 03 08       	cmp    %rcx,0x8(%rbx,%rax,1)
  205857:	75 17                	jne    205870 <_ZN4core3fmt5write17h9e810da9ad2d3eaaE+0x110>
  205859:	48 8b 04 03          	mov    (%rbx,%rax,1),%rax
  20585d:	48 8b 00             	mov    (%rax),%rax
  205860:	b9 01 00 00 00       	mov    $0x1,%ecx
  205865:	e9 08 00 00 00       	jmpq   205872 <_ZN4core3fmt5write17h9e810da9ad2d3eaaE+0x112>
  20586a:	66 0f 1f 44 00 00    	nopw   0x0(%rax,%rax,1)
  205870:	31 c9                	xor    %ecx,%ecx
  205872:	48 89 4c 24 10       	mov    %rcx,0x10(%rsp)
  205877:	48 89 44 24 18       	mov    %rax,0x18(%rsp)
  20587c:	48 8b 4d d8          	mov    -0x28(%rbp),%rcx
  205880:	48 8b 45 e0          	mov    -0x20(%rbp),%rax
  205884:	48 85 c9             	test   %rcx,%rcx
  205887:	74 1d                	je     2058a6 <_ZN4core3fmt5write17h9e810da9ad2d3eaaE+0x146>
  205889:	48 83 f9 02          	cmp    $0x2,%rcx
  20588d:	74 21                	je     2058b0 <_ZN4core3fmt5write17h9e810da9ad2d3eaaE+0x150>
  20588f:	48 c1 e0 04          	shl    $0x4,%rax
  205893:	b9 30 57 20 00       	mov    $0x205730,%ecx
  205898:	48 39 4c 03 08       	cmp    %rcx,0x8(%rbx,%rax,1)
  20589d:	75 11                	jne    2058b0 <_ZN4core3fmt5write17h9e810da9ad2d3eaaE+0x150>
  20589f:	48 8b 04 03          	mov    (%rbx,%rax,1),%rax
  2058a3:	48 8b 00             	mov    (%rax),%rax
  2058a6:	b9 01 00 00 00       	mov    $0x1,%ecx
  2058ab:	e9 02 00 00 00       	jmpq   2058b2 <_ZN4core3fmt5write17h9e810da9ad2d3eaaE+0x152>
  2058b0:	31 c9                	xor    %ecx,%ecx
  2058b2:	48 89 4c 24 20       	mov    %rcx,0x20(%rsp)
  2058b7:	48 89 44 24 28       	mov    %rax,0x28(%rsp)
  2058bc:	48 8b 4d d0          	mov    -0x30(%rbp),%rcx
  2058c0:	48 c1 e1 04          	shl    $0x4,%rcx
  2058c4:	48 8b 3c 0b          	mov    (%rbx,%rcx,1),%rdi
  2058c8:	48 8d 74 24 10       	lea    0x10(%rsp),%rsi
  2058cd:	ff 54 0b 08          	callq  *0x8(%rbx,%rcx,1)
  2058d1:	84 c0                	test   %al,%al
  2058d3:	0f 85 e4 00 00 00    	jne    2059bd <_ZN4core3fmt5write17h9e810da9ad2d3eaaE+0x25d>
  2058d9:	4d 8d 6e 10          	lea    0x10(%r14),%r13
  2058dd:	4c 39 6c 24 50       	cmp    %r13,0x50(%rsp)
  2058e2:	0f 84 ad 00 00 00    	je     205995 <_ZN4core3fmt5write17h9e810da9ad2d3eaaE+0x235>
  2058e8:	48 83 c5 38          	add    $0x38,%rbp
  2058ec:	48 8b 7c 24 30       	mov    0x30(%rsp),%rdi
  2058f1:	48 8b 44 24 38       	mov    0x38(%rsp),%rax
  2058f6:	4b 8b 74 34 10       	mov    0x10(%r12,%r14,1),%rsi
  2058fb:	4b 8b 54 34 18       	mov    0x18(%r12,%r14,1),%rdx
  205900:	ff 50 18             	callq  *0x18(%rax)
  205903:	84 c0                	test   %al,%al
  205905:	4d 89 ee             	mov    %r13,%r14
  205908:	0f 84 12 ff ff ff    	je     205820 <_ZN4core3fmt5write17h9e810da9ad2d3eaaE+0xc0>
  20590e:	e9 aa 00 00 00       	jmpq   2059bd <_ZN4core3fmt5write17h9e810da9ad2d3eaaE+0x25d>
  205913:	4c 8b 7b 28          	mov    0x28(%rbx),%r15
  205917:	4c 8b 23             	mov    (%rbx),%r12
  20591a:	48 8b 73 08          	mov    0x8(%rbx),%rsi
  20591e:	49 39 f7             	cmp    %rsi,%r15
  205921:	4c 0f 47 fe          	cmova  %rsi,%r15
  205925:	4d 85 ff             	test   %r15,%r15
  205928:	74 61                	je     20598b <_ZN4core3fmt5write17h9e810da9ad2d3eaaE+0x22b>
  20592a:	48 89 74 24 08       	mov    %rsi,0x8(%rsp)
  20592f:	4c 8b 6b 20          	mov    0x20(%rbx),%r13
  205933:	49 8b 34 24          	mov    (%r12),%rsi
  205937:	49 8b 54 24 08       	mov    0x8(%r12),%rdx
  20593c:	ff 51 18             	callq  *0x18(%rcx)
  20593f:	84 c0                	test   %al,%al
  205941:	0f 85 76 00 00 00    	jne    2059bd <_ZN4core3fmt5write17h9e810da9ad2d3eaaE+0x25d>
  205947:	bd 10 00 00 00       	mov    $0x10,%ebp
  20594c:	4c 89 fb             	mov    %r15,%rbx
  20594f:	90                   	nop
  205950:	49 8b 7c 2d f0       	mov    -0x10(%r13,%rbp,1),%rdi
  205955:	48 8d 74 24 10       	lea    0x10(%rsp),%rsi
  20595a:	41 ff 54 2d f8       	callq  *-0x8(%r13,%rbp,1)
  20595f:	84 c0                	test   %al,%al
  205961:	75 5a                	jne    2059bd <_ZN4core3fmt5write17h9e810da9ad2d3eaaE+0x25d>
  205963:	48 ff cb             	dec    %rbx
  205966:	74 2d                	je     205995 <_ZN4core3fmt5write17h9e810da9ad2d3eaaE+0x235>
  205968:	4c 8d 75 10          	lea    0x10(%rbp),%r14
  20596c:	48 8b 7c 24 30       	mov    0x30(%rsp),%rdi
  205971:	48 8b 44 24 38       	mov    0x38(%rsp),%rax
  205976:	49 8b 34 2c          	mov    (%r12,%rbp,1),%rsi
  20597a:	49 8b 54 2c 08       	mov    0x8(%r12,%rbp,1),%rdx
  20597f:	ff 50 18             	callq  *0x18(%rax)
  205982:	84 c0                	test   %al,%al
  205984:	4c 89 f5             	mov    %r14,%rbp
  205987:	74 c7                	je     205950 <_ZN4core3fmt5write17h9e810da9ad2d3eaaE+0x1f0>
  205989:	eb 32                	jmp    2059bd <_ZN4core3fmt5write17h9e810da9ad2d3eaaE+0x25d>
  20598b:	45 31 ff             	xor    %r15d,%r15d
  20598e:	4c 39 fe             	cmp    %r15,%rsi
  205991:	77 0c                	ja     20599f <_ZN4core3fmt5write17h9e810da9ad2d3eaaE+0x23f>
  205993:	eb 2c                	jmp    2059c1 <_ZN4core3fmt5write17h9e810da9ad2d3eaaE+0x261>
  205995:	48 8b 74 24 08       	mov    0x8(%rsp),%rsi
  20599a:	4c 39 fe             	cmp    %r15,%rsi
  20599d:	76 22                	jbe    2059c1 <_ZN4core3fmt5write17h9e810da9ad2d3eaaE+0x261>
  20599f:	48 8b 7c 24 30       	mov    0x30(%rsp),%rdi
  2059a4:	48 8b 44 24 38       	mov    0x38(%rsp),%rax
  2059a9:	49 c1 e7 04          	shl    $0x4,%r15
  2059ad:	4b 8b 34 3c          	mov    (%r12,%r15,1),%rsi
  2059b1:	4b 8b 54 3c 08       	mov    0x8(%r12,%r15,1),%rdx
  2059b6:	ff 50 18             	callq  *0x18(%rax)
  2059b9:	84 c0                	test   %al,%al
  2059bb:	74 04                	je     2059c1 <_ZN4core3fmt5write17h9e810da9ad2d3eaaE+0x261>
  2059bd:	b0 01                	mov    $0x1,%al
  2059bf:	eb 02                	jmp    2059c3 <_ZN4core3fmt5write17h9e810da9ad2d3eaaE+0x263>
  2059c1:	31 c0                	xor    %eax,%eax
  2059c3:	48 83 c4 58          	add    $0x58,%rsp
  2059c7:	5b                   	pop    %rbx
  2059c8:	41 5c                	pop    %r12
  2059ca:	41 5d                	pop    %r13
  2059cc:	41 5e                	pop    %r14
  2059ce:	41 5f                	pop    %r15
  2059d0:	5d                   	pop    %rbp
  2059d1:	c3                   	retq   
  2059d2:	cc                   	int3   
  2059d3:	cc                   	int3   
  2059d4:	cc                   	int3   
  2059d5:	cc                   	int3   
  2059d6:	cc                   	int3   
  2059d7:	cc                   	int3   
  2059d8:	cc                   	int3   
  2059d9:	cc                   	int3   
  2059da:	cc                   	int3   
  2059db:	cc                   	int3   
  2059dc:	cc                   	int3   
  2059dd:	cc                   	int3   
  2059de:	cc                   	int3   
  2059df:	cc                   	int3   

00000000002059e0 <_ZN4core3fmt9Formatter12pad_integral17h4b39f03cb4a1838dE>:
  2059e0:	55                   	push   %rbp
  2059e1:	41 57                	push   %r15
  2059e3:	41 56                	push   %r14
  2059e5:	41 55                	push   %r13
  2059e7:	41 54                	push   %r12
  2059e9:	53                   	push   %rbx
  2059ea:	48 83 ec 18          	sub    $0x18,%rsp
  2059ee:	4d 89 cf             	mov    %r9,%r15
  2059f1:	4c 89 c5             	mov    %r8,%rbp
  2059f4:	49 89 cc             	mov    %rcx,%r12
  2059f7:	49 89 d5             	mov    %rdx,%r13
  2059fa:	48 89 fb             	mov    %rdi,%rbx
  2059fd:	40 84 f6             	test   %sil,%sil
  205a00:	0f 84 95 00 00 00    	je     205a9b <_ZN4core3fmt9Formatter12pad_integral17h4b39f03cb4a1838dE+0xbb>
  205a06:	44 8b 43 30          	mov    0x30(%rbx),%r8d
  205a0a:	44 89 c0             	mov    %r8d,%eax
  205a0d:	83 e0 01             	and    $0x1,%eax
  205a10:	85 c0                	test   %eax,%eax
  205a12:	ba 00 00 11 00       	mov    $0x110000,%edx
  205a17:	41 be 2b 00 00 00    	mov    $0x2b,%r14d
  205a1d:	44 0f 44 f2          	cmove  %edx,%r14d
  205a21:	4c 01 f8             	add    %r15,%rax
  205a24:	41 f6 c0 04          	test   $0x4,%r8b
  205a28:	0f 84 85 00 00 00    	je     205ab3 <_ZN4core3fmt9Formatter12pad_integral17h4b39f03cb4a1838dE+0xd3>
  205a2e:	49 89 e9             	mov    %rbp,%r9
  205a31:	31 d2                	xor    %edx,%edx
  205a33:	4d 85 e4             	test   %r12,%r12
  205a36:	74 22                	je     205a5a <_ZN4core3fmt9Formatter12pad_integral17h4b39f03cb4a1838dE+0x7a>
  205a38:	4c 89 e6             	mov    %r12,%rsi
  205a3b:	4c 89 ef             	mov    %r13,%rdi
  205a3e:	66 90                	xchg   %ax,%ax
  205a40:	0f b6 0f             	movzbl (%rdi),%ecx
  205a43:	48 ff c7             	inc    %rdi
  205a46:	80 e1 c0             	and    $0xc0,%cl
  205a49:	31 ed                	xor    %ebp,%ebp
  205a4b:	80 f9 80             	cmp    $0x80,%cl
  205a4e:	40 0f 94 c5          	sete   %bpl
  205a52:	48 01 ea             	add    %rbp,%rdx
  205a55:	48 ff ce             	dec    %rsi
  205a58:	75 e6                	jne    205a40 <_ZN4core3fmt9Formatter12pad_integral17h4b39f03cb4a1838dE+0x60>
  205a5a:	4c 01 e0             	add    %r12,%rax
  205a5d:	48 29 d0             	sub    %rdx,%rax
  205a60:	4c 89 cd             	mov    %r9,%rbp
  205a63:	83 3b 01             	cmpl   $0x1,(%rbx)
  205a66:	74 53                	je     205abb <_ZN4core3fmt9Formatter12pad_integral17h4b39f03cb4a1838dE+0xdb>
  205a68:	48 89 df             	mov    %rbx,%rdi
  205a6b:	44 89 f6             	mov    %r14d,%esi
  205a6e:	4c 89 ea             	mov    %r13,%rdx
  205a71:	4c 89 e1             	mov    %r12,%rcx
  205a74:	e8 67 02 00 00       	callq  205ce0 <_ZN4core3fmt9Formatter12pad_integral12write_prefix17hf4d6a0d8653221d2E>
  205a79:	41 b4 01             	mov    $0x1,%r12b
  205a7c:	84 c0                	test   %al,%al
  205a7e:	0f 85 41 02 00 00    	jne    205cc5 <_ZN4core3fmt9Formatter12pad_integral17h4b39f03cb4a1838dE+0x2e5>
  205a84:	48 8b 7b 20          	mov    0x20(%rbx),%rdi
  205a88:	48 8b 43 28          	mov    0x28(%rbx),%rax
  205a8c:	48 8b 40 18          	mov    0x18(%rax),%rax
  205a90:	48 89 ee             	mov    %rbp,%rsi
  205a93:	4c 89 fa             	mov    %r15,%rdx
  205a96:	e9 96 00 00 00       	jmpq   205b31 <_ZN4core3fmt9Formatter12pad_integral17h4b39f03cb4a1838dE+0x151>
  205a9b:	49 8d 47 01          	lea    0x1(%r15),%rax
  205a9f:	44 8b 43 30          	mov    0x30(%rbx),%r8d
  205aa3:	41 be 2d 00 00 00    	mov    $0x2d,%r14d
  205aa9:	41 f6 c0 04          	test   $0x4,%r8b
  205aad:	0f 85 7b ff ff ff    	jne    205a2e <_ZN4core3fmt9Formatter12pad_integral17h4b39f03cb4a1838dE+0x4e>
  205ab3:	45 31 ed             	xor    %r13d,%r13d
  205ab6:	83 3b 01             	cmpl   $0x1,(%rbx)
  205ab9:	75 ad                	jne    205a68 <_ZN4core3fmt9Formatter12pad_integral17h4b39f03cb4a1838dE+0x88>
  205abb:	4c 89 7c 24 10       	mov    %r15,0x10(%rsp)
  205ac0:	48 8b 53 08          	mov    0x8(%rbx),%rdx
  205ac4:	49 89 d7             	mov    %rdx,%r15
  205ac7:	49 29 c7             	sub    %rax,%r15
  205aca:	76 35                	jbe    205b01 <_ZN4core3fmt9Formatter12pad_integral17h4b39f03cb4a1838dE+0x121>
  205acc:	41 f6 c0 08          	test   $0x8,%r8b
  205ad0:	75 6f                	jne    205b41 <_ZN4core3fmt9Formatter12pad_integral17h4b39f03cb4a1838dE+0x161>
  205ad2:	48 89 6c 24 08       	mov    %rbp,0x8(%rsp)
  205ad7:	48 29 c2             	sub    %rax,%rdx
  205ada:	8b 43 38             	mov    0x38(%rbx),%eax
  205add:	3c 03                	cmp    $0x3,%al
  205adf:	b9 01 00 00 00       	mov    $0x1,%ecx
  205ae4:	0f 45 c8             	cmovne %eax,%ecx
  205ae7:	31 ed                	xor    %ebp,%ebp
  205ae9:	0f b6 c1             	movzbl %cl,%eax
  205aec:	49 89 d7             	mov    %rdx,%r15
  205aef:	ff 24 c5 30 14 20 00 	jmpq   *0x201430(,%rax,8)
  205af6:	45 31 ff             	xor    %r15d,%r15d
  205af9:	48 89 d5             	mov    %rdx,%rbp
  205afc:	e9 ae 00 00 00       	jmpq   205baf <_ZN4core3fmt9Formatter12pad_integral17h4b39f03cb4a1838dE+0x1cf>
  205b01:	48 89 df             	mov    %rbx,%rdi
  205b04:	44 89 f6             	mov    %r14d,%esi
  205b07:	4c 89 ea             	mov    %r13,%rdx
  205b0a:	4c 89 e1             	mov    %r12,%rcx
  205b0d:	e8 ce 01 00 00       	callq  205ce0 <_ZN4core3fmt9Formatter12pad_integral12write_prefix17hf4d6a0d8653221d2E>
  205b12:	41 b4 01             	mov    $0x1,%r12b
  205b15:	84 c0                	test   %al,%al
  205b17:	48 8b 54 24 10       	mov    0x10(%rsp),%rdx
  205b1c:	0f 85 a3 01 00 00    	jne    205cc5 <_ZN4core3fmt9Formatter12pad_integral17h4b39f03cb4a1838dE+0x2e5>
  205b22:	48 8b 7b 20          	mov    0x20(%rbx),%rdi
  205b26:	48 8b 43 28          	mov    0x28(%rbx),%rax
  205b2a:	48 8b 40 18          	mov    0x18(%rax),%rax
  205b2e:	48 89 ee             	mov    %rbp,%rsi
  205b31:	48 83 c4 18          	add    $0x18,%rsp
  205b35:	5b                   	pop    %rbx
  205b36:	41 5c                	pop    %r12
  205b38:	41 5d                	pop    %r13
  205b3a:	41 5e                	pop    %r14
  205b3c:	41 5f                	pop    %r15
  205b3e:	5d                   	pop    %rbp
  205b3f:	ff e0                	jmpq   *%rax
  205b41:	8b 43 34             	mov    0x34(%rbx),%eax
  205b44:	89 44 24 08          	mov    %eax,0x8(%rsp)
  205b48:	c7 43 34 30 00 00 00 	movl   $0x30,0x34(%rbx)
  205b4f:	8a 43 38             	mov    0x38(%rbx),%al
  205b52:	88 44 24 07          	mov    %al,0x7(%rsp)
  205b56:	c6 43 38 01          	movb   $0x1,0x38(%rbx)
  205b5a:	48 89 df             	mov    %rbx,%rdi
  205b5d:	44 89 f6             	mov    %r14d,%esi
  205b60:	4c 89 ea             	mov    %r13,%rdx
  205b63:	4c 89 e1             	mov    %r12,%rcx
  205b66:	e8 75 01 00 00       	callq  205ce0 <_ZN4core3fmt9Formatter12pad_integral12write_prefix17hf4d6a0d8653221d2E>
  205b6b:	41 b4 01             	mov    $0x1,%r12b
  205b6e:	84 c0                	test   %al,%al
  205b70:	0f 85 4f 01 00 00    	jne    205cc5 <_ZN4core3fmt9Formatter12pad_integral17h4b39f03cb4a1838dE+0x2e5>
  205b76:	49 89 ee             	mov    %rbp,%r14
  205b79:	8b 43 38             	mov    0x38(%rbx),%eax
  205b7c:	3c 03                	cmp    $0x3,%al
  205b7e:	b9 01 00 00 00       	mov    $0x1,%ecx
  205b83:	0f 45 c8             	cmovne %eax,%ecx
  205b86:	31 ed                	xor    %ebp,%ebp
  205b88:	0f b6 c1             	movzbl %cl,%eax
  205b8b:	4d 89 fd             	mov    %r15,%r13
  205b8e:	ff 24 c5 10 14 20 00 	jmpq   *0x201410(,%rax,8)
  205b95:	45 31 ed             	xor    %r13d,%r13d
  205b98:	4c 89 fd             	mov    %r15,%rbp
  205b9b:	e9 b9 00 00 00       	jmpq   205c59 <_ZN4core3fmt9Formatter12pad_integral17h4b39f03cb4a1838dE+0x279>
  205ba0:	48 89 d5             	mov    %rdx,%rbp
  205ba3:	48 d1 ed             	shr    %rbp
  205ba6:	48 ff c2             	inc    %rdx
  205ba9:	48 d1 ea             	shr    %rdx
  205bac:	49 89 d7             	mov    %rdx,%r15
  205baf:	48 ff c5             	inc    %rbp
  205bb2:	66 2e 0f 1f 84 00 00 	nopw   %cs:0x0(%rax,%rax,1)
  205bb9:	00 00 00 
  205bbc:	0f 1f 40 00          	nopl   0x0(%rax)
  205bc0:	48 ff cd             	dec    %rbp
  205bc3:	74 1a                	je     205bdf <_ZN4core3fmt9Formatter12pad_integral17h4b39f03cb4a1838dE+0x1ff>
  205bc5:	48 8b 7b 20          	mov    0x20(%rbx),%rdi
  205bc9:	48 8b 43 28          	mov    0x28(%rbx),%rax
  205bcd:	8b 73 34             	mov    0x34(%rbx),%esi
  205bd0:	ff 50 20             	callq  *0x20(%rax)
  205bd3:	84 c0                	test   %al,%al
  205bd5:	74 e9                	je     205bc0 <_ZN4core3fmt9Formatter12pad_integral17h4b39f03cb4a1838dE+0x1e0>
  205bd7:	41 b4 01             	mov    $0x1,%r12b
  205bda:	e9 e6 00 00 00       	jmpq   205cc5 <_ZN4core3fmt9Formatter12pad_integral17h4b39f03cb4a1838dE+0x2e5>
  205bdf:	8b 6b 34             	mov    0x34(%rbx),%ebp
  205be2:	48 89 df             	mov    %rbx,%rdi
  205be5:	44 89 f6             	mov    %r14d,%esi
  205be8:	4c 89 ea             	mov    %r13,%rdx
  205beb:	4c 89 e1             	mov    %r12,%rcx
  205bee:	e8 ed 00 00 00       	callq  205ce0 <_ZN4core3fmt9Formatter12pad_integral12write_prefix17hf4d6a0d8653221d2E>
  205bf3:	41 b4 01             	mov    $0x1,%r12b
  205bf6:	84 c0                	test   %al,%al
  205bf8:	0f 85 c7 00 00 00    	jne    205cc5 <_ZN4core3fmt9Formatter12pad_integral17h4b39f03cb4a1838dE+0x2e5>
  205bfe:	48 8b 7b 20          	mov    0x20(%rbx),%rdi
  205c02:	48 8b 43 28          	mov    0x28(%rbx),%rax
  205c06:	48 8b 74 24 08       	mov    0x8(%rsp),%rsi
  205c0b:	48 8b 54 24 10       	mov    0x10(%rsp),%rdx
  205c10:	ff 50 18             	callq  *0x18(%rax)
  205c13:	84 c0                	test   %al,%al
  205c15:	0f 85 aa 00 00 00    	jne    205cc5 <_ZN4core3fmt9Formatter12pad_integral17h4b39f03cb4a1838dE+0x2e5>
  205c1b:	4c 8b 73 20          	mov    0x20(%rbx),%r14
  205c1f:	48 8b 5b 28          	mov    0x28(%rbx),%rbx
  205c23:	49 ff c7             	inc    %r15
  205c26:	66 2e 0f 1f 84 00 00 	nopw   %cs:0x0(%rax,%rax,1)
  205c2d:	00 00 00 
  205c30:	49 ff cf             	dec    %r15
  205c33:	0f 84 89 00 00 00    	je     205cc2 <_ZN4core3fmt9Formatter12pad_integral17h4b39f03cb4a1838dE+0x2e2>
  205c39:	4c 89 f7             	mov    %r14,%rdi
  205c3c:	89 ee                	mov    %ebp,%esi
  205c3e:	ff 53 20             	callq  *0x20(%rbx)
  205c41:	84 c0                	test   %al,%al
  205c43:	74 eb                	je     205c30 <_ZN4core3fmt9Formatter12pad_integral17h4b39f03cb4a1838dE+0x250>
  205c45:	e9 7b 00 00 00       	jmpq   205cc5 <_ZN4core3fmt9Formatter12pad_integral17h4b39f03cb4a1838dE+0x2e5>
  205c4a:	4c 89 fd             	mov    %r15,%rbp
  205c4d:	48 d1 ed             	shr    %rbp
  205c50:	49 ff c7             	inc    %r15
  205c53:	49 d1 ef             	shr    %r15
  205c56:	4d 89 fd             	mov    %r15,%r13
  205c59:	48 ff c5             	inc    %rbp
  205c5c:	0f 1f 40 00          	nopl   0x0(%rax)
  205c60:	48 ff cd             	dec    %rbp
  205c63:	74 14                	je     205c79 <_ZN4core3fmt9Formatter12pad_integral17h4b39f03cb4a1838dE+0x299>
  205c65:	48 8b 7b 20          	mov    0x20(%rbx),%rdi
  205c69:	48 8b 43 28          	mov    0x28(%rbx),%rax
  205c6d:	8b 73 34             	mov    0x34(%rbx),%esi
  205c70:	ff 50 20             	callq  *0x20(%rax)
  205c73:	84 c0                	test   %al,%al
  205c75:	74 e9                	je     205c60 <_ZN4core3fmt9Formatter12pad_integral17h4b39f03cb4a1838dE+0x280>
  205c77:	eb 4c                	jmp    205cc5 <_ZN4core3fmt9Formatter12pad_integral17h4b39f03cb4a1838dE+0x2e5>
  205c79:	44 8b 7b 34          	mov    0x34(%rbx),%r15d
  205c7d:	48 8b 7b 20          	mov    0x20(%rbx),%rdi
  205c81:	48 8b 43 28          	mov    0x28(%rbx),%rax
  205c85:	4c 89 f6             	mov    %r14,%rsi
  205c88:	48 8b 54 24 10       	mov    0x10(%rsp),%rdx
  205c8d:	ff 50 18             	callq  *0x18(%rax)
  205c90:	84 c0                	test   %al,%al
  205c92:	75 31                	jne    205cc5 <_ZN4core3fmt9Formatter12pad_integral17h4b39f03cb4a1838dE+0x2e5>
  205c94:	4c 8b 73 20          	mov    0x20(%rbx),%r14
  205c98:	48 8b 6b 28          	mov    0x28(%rbx),%rbp
  205c9c:	49 ff c5             	inc    %r13
  205c9f:	90                   	nop
  205ca0:	49 ff cd             	dec    %r13
  205ca3:	74 0f                	je     205cb4 <_ZN4core3fmt9Formatter12pad_integral17h4b39f03cb4a1838dE+0x2d4>
  205ca5:	4c 89 f7             	mov    %r14,%rdi
  205ca8:	44 89 fe             	mov    %r15d,%esi
  205cab:	ff 55 20             	callq  *0x20(%rbp)
  205cae:	84 c0                	test   %al,%al
  205cb0:	74 ee                	je     205ca0 <_ZN4core3fmt9Formatter12pad_integral17h4b39f03cb4a1838dE+0x2c0>
  205cb2:	eb 11                	jmp    205cc5 <_ZN4core3fmt9Formatter12pad_integral17h4b39f03cb4a1838dE+0x2e5>
  205cb4:	8b 44 24 08          	mov    0x8(%rsp),%eax
  205cb8:	89 43 34             	mov    %eax,0x34(%rbx)
  205cbb:	8a 44 24 07          	mov    0x7(%rsp),%al
  205cbf:	88 43 38             	mov    %al,0x38(%rbx)
  205cc2:	45 31 e4             	xor    %r12d,%r12d
  205cc5:	44 89 e0             	mov    %r12d,%eax
  205cc8:	48 83 c4 18          	add    $0x18,%rsp
  205ccc:	5b                   	pop    %rbx
  205ccd:	41 5c                	pop    %r12
  205ccf:	41 5d                	pop    %r13
  205cd1:	41 5e                	pop    %r14
  205cd3:	41 5f                	pop    %r15
  205cd5:	5d                   	pop    %rbp
  205cd6:	c3                   	retq   
  205cd7:	cc                   	int3   
  205cd8:	cc                   	int3   
  205cd9:	cc                   	int3   
  205cda:	cc                   	int3   
  205cdb:	cc                   	int3   
  205cdc:	cc                   	int3   
  205cdd:	cc                   	int3   
  205cde:	cc                   	int3   
  205cdf:	cc                   	int3   

0000000000205ce0 <_ZN4core3fmt9Formatter12pad_integral12write_prefix17hf4d6a0d8653221d2E>:
  205ce0:	41 57                	push   %r15
  205ce2:	41 56                	push   %r14
  205ce4:	53                   	push   %rbx
  205ce5:	49 89 ce             	mov    %rcx,%r14
  205ce8:	49 89 d7             	mov    %rdx,%r15
  205ceb:	48 89 fb             	mov    %rdi,%rbx
  205cee:	81 fe 00 00 11 00    	cmp    $0x110000,%esi
  205cf4:	74 13                	je     205d09 <_ZN4core3fmt9Formatter12pad_integral12write_prefix17hf4d6a0d8653221d2E+0x29>
  205cf6:	48 8b 7b 20          	mov    0x20(%rbx),%rdi
  205cfa:	48 8b 43 28          	mov    0x28(%rbx),%rax
  205cfe:	ff 50 20             	callq  *0x20(%rax)
  205d01:	89 c1                	mov    %eax,%ecx
  205d03:	b0 01                	mov    $0x1,%al
  205d05:	84 c9                	test   %cl,%cl
  205d07:	75 20                	jne    205d29 <_ZN4core3fmt9Formatter12pad_integral12write_prefix17hf4d6a0d8653221d2E+0x49>
  205d09:	4d 85 ff             	test   %r15,%r15
  205d0c:	74 19                	je     205d27 <_ZN4core3fmt9Formatter12pad_integral12write_prefix17hf4d6a0d8653221d2E+0x47>
  205d0e:	48 8b 7b 20          	mov    0x20(%rbx),%rdi
  205d12:	48 8b 43 28          	mov    0x28(%rbx),%rax
  205d16:	48 8b 40 18          	mov    0x18(%rax),%rax
  205d1a:	4c 89 fe             	mov    %r15,%rsi
  205d1d:	4c 89 f2             	mov    %r14,%rdx
  205d20:	5b                   	pop    %rbx
  205d21:	41 5e                	pop    %r14
  205d23:	41 5f                	pop    %r15
  205d25:	ff e0                	jmpq   *%rax
  205d27:	31 c0                	xor    %eax,%eax
  205d29:	5b                   	pop    %rbx
  205d2a:	41 5e                	pop    %r14
  205d2c:	41 5f                	pop    %r15
  205d2e:	c3                   	retq   
  205d2f:	cc                   	int3   

0000000000205d30 <_ZN4core3fmt9Formatter3pad17h1ffbf0acce254a41E>:
  205d30:	55                   	push   %rbp
  205d31:	41 57                	push   %r15
  205d33:	41 56                	push   %r14
  205d35:	41 55                	push   %r13
  205d37:	41 54                	push   %r12
  205d39:	53                   	push   %rbx
  205d3a:	50                   	push   %rax
  205d3b:	49 89 d6             	mov    %rdx,%r14
  205d3e:	49 89 f7             	mov    %rsi,%r15
  205d41:	49 89 fd             	mov    %rdi,%r13
  205d44:	4c 8b 07             	mov    (%rdi),%r8
  205d47:	48 8b 47 10          	mov    0x10(%rdi),%rax
  205d4b:	49 83 f8 01          	cmp    $0x1,%r8
  205d4f:	75 0b                	jne    205d5c <_ZN4core3fmt9Formatter3pad17h1ffbf0acce254a41E+0x2c>
  205d51:	48 83 f8 01          	cmp    $0x1,%rax
  205d55:	74 0f                	je     205d66 <_ZN4core3fmt9Formatter3pad17h1ffbf0acce254a41E+0x36>
  205d57:	e9 35 01 00 00       	jmpq   205e91 <_ZN4core3fmt9Formatter3pad17h1ffbf0acce254a41E+0x161>
  205d5c:	48 83 f8 01          	cmp    $0x1,%rax
  205d60:	0f 85 c7 01 00 00    	jne    205f2d <_ZN4core3fmt9Formatter3pad17h1ffbf0acce254a41E+0x1fd>
  205d66:	49 8b 7d 18          	mov    0x18(%r13),%rdi
  205d6a:	4f 8d 0c 37          	lea    (%r15,%r14,1),%r9
  205d6e:	31 c9                	xor    %ecx,%ecx
  205d70:	48 85 ff             	test   %rdi,%rdi
  205d73:	0f 84 b2 00 00 00    	je     205e2b <_ZN4core3fmt9Formatter3pad17h1ffbf0acce254a41E+0xfb>
  205d79:	4c 89 fe             	mov    %r15,%rsi
  205d7c:	eb 43                	jmp    205dc1 <_ZN4core3fmt9Formatter3pad17h1ffbf0acce254a41E+0x91>
  205d7e:	44 0f b6 1b          	movzbl (%rbx),%r11d
  205d82:	48 ff c3             	inc    %rbx
  205d85:	41 83 e3 3f          	and    $0x3f,%r11d
  205d89:	48 89 da             	mov    %rbx,%rdx
  205d8c:	83 e0 07             	and    $0x7,%eax
  205d8f:	c1 e0 12             	shl    $0x12,%eax
  205d92:	41 c1 e2 0c          	shl    $0xc,%r10d
  205d96:	41 09 c2             	or     %eax,%r10d
  205d99:	c1 e5 06             	shl    $0x6,%ebp
  205d9c:	44 09 d5             	or     %r10d,%ebp
  205d9f:	44 09 dd             	or     %r11d,%ebp
  205da2:	81 fd 00 00 11 00    	cmp    $0x110000,%ebp
  205da8:	0f 84 d9 00 00 00    	je     205e87 <_ZN4core3fmt9Formatter3pad17h1ffbf0acce254a41E+0x157>
  205dae:	66 90                	xchg   %ax,%ax
  205db0:	48 89 d0             	mov    %rdx,%rax
  205db3:	48 29 f0             	sub    %rsi,%rax
  205db6:	48 01 c1             	add    %rax,%rcx
  205db9:	48 ff cf             	dec    %rdi
  205dbc:	48 89 d6             	mov    %rdx,%rsi
  205dbf:	74 6d                	je     205e2e <_ZN4core3fmt9Formatter3pad17h1ffbf0acce254a41E+0xfe>
  205dc1:	49 39 f1             	cmp    %rsi,%r9
  205dc4:	0f 84 bd 00 00 00    	je     205e87 <_ZN4core3fmt9Formatter3pad17h1ffbf0acce254a41E+0x157>
  205dca:	48 8d 56 01          	lea    0x1(%rsi),%rdx
  205dce:	0f b6 06             	movzbl (%rsi),%eax
  205dd1:	84 c0                	test   %al,%al
  205dd3:	79 db                	jns    205db0 <_ZN4core3fmt9Formatter3pad17h1ffbf0acce254a41E+0x80>
  205dd5:	4c 39 ca             	cmp    %r9,%rdx
  205dd8:	74 16                	je     205df0 <_ZN4core3fmt9Formatter3pad17h1ffbf0acce254a41E+0xc0>
  205dda:	48 8d 56 02          	lea    0x2(%rsi),%rdx
  205dde:	44 0f b6 56 01       	movzbl 0x1(%rsi),%r10d
  205de3:	41 83 e2 3f          	and    $0x3f,%r10d
  205de7:	48 89 d3             	mov    %rdx,%rbx
  205dea:	3c e0                	cmp    $0xe0,%al
  205dec:	72 c2                	jb     205db0 <_ZN4core3fmt9Formatter3pad17h1ffbf0acce254a41E+0x80>
  205dee:	eb 0a                	jmp    205dfa <_ZN4core3fmt9Formatter3pad17h1ffbf0acce254a41E+0xca>
  205df0:	45 31 d2             	xor    %r10d,%r10d
  205df3:	4c 89 cb             	mov    %r9,%rbx
  205df6:	3c e0                	cmp    $0xe0,%al
  205df8:	72 b6                	jb     205db0 <_ZN4core3fmt9Formatter3pad17h1ffbf0acce254a41E+0x80>
  205dfa:	4c 39 cb             	cmp    %r9,%rbx
  205dfd:	74 12                	je     205e11 <_ZN4core3fmt9Formatter3pad17h1ffbf0acce254a41E+0xe1>
  205dff:	0f b6 2b             	movzbl (%rbx),%ebp
  205e02:	48 ff c3             	inc    %rbx
  205e05:	83 e5 3f             	and    $0x3f,%ebp
  205e08:	48 89 da             	mov    %rbx,%rdx
  205e0b:	3c f0                	cmp    $0xf0,%al
  205e0d:	72 a1                	jb     205db0 <_ZN4core3fmt9Formatter3pad17h1ffbf0acce254a41E+0x80>
  205e0f:	eb 09                	jmp    205e1a <_ZN4core3fmt9Formatter3pad17h1ffbf0acce254a41E+0xea>
  205e11:	31 ed                	xor    %ebp,%ebp
  205e13:	4c 89 cb             	mov    %r9,%rbx
  205e16:	3c f0                	cmp    $0xf0,%al
  205e18:	72 96                	jb     205db0 <_ZN4core3fmt9Formatter3pad17h1ffbf0acce254a41E+0x80>
  205e1a:	4c 39 cb             	cmp    %r9,%rbx
  205e1d:	0f 85 5b ff ff ff    	jne    205d7e <_ZN4core3fmt9Formatter3pad17h1ffbf0acce254a41E+0x4e>
  205e23:	45 31 db             	xor    %r11d,%r11d
  205e26:	e9 61 ff ff ff       	jmpq   205d8c <_ZN4core3fmt9Formatter3pad17h1ffbf0acce254a41E+0x5c>
  205e2b:	4c 89 fa             	mov    %r15,%rdx
  205e2e:	49 39 d1             	cmp    %rdx,%r9
  205e31:	74 54                	je     205e87 <_ZN4core3fmt9Formatter3pad17h1ffbf0acce254a41E+0x157>
  205e33:	0f b6 02             	movzbl (%rdx),%eax
  205e36:	84 c0                	test   %al,%al
  205e38:	78 1b                	js     205e55 <_ZN4core3fmt9Formatter3pad17h1ffbf0acce254a41E+0x125>
  205e3a:	48 85 c9             	test   %rcx,%rcx
  205e3d:	74 11                	je     205e50 <_ZN4core3fmt9Formatter3pad17h1ffbf0acce254a41E+0x120>
  205e3f:	4c 39 f1             	cmp    %r14,%rcx
  205e42:	74 0c                	je     205e50 <_ZN4core3fmt9Formatter3pad17h1ffbf0acce254a41E+0x120>
  205e44:	4c 39 f1             	cmp    %r14,%rcx
  205e47:	73 31                	jae    205e7a <_ZN4core3fmt9Formatter3pad17h1ffbf0acce254a41E+0x14a>
  205e49:	41 80 3c 0f c0       	cmpb   $0xc0,(%r15,%rcx,1)
  205e4e:	7c 2a                	jl     205e7a <_ZN4core3fmt9Formatter3pad17h1ffbf0acce254a41E+0x14a>
  205e50:	4c 89 f8             	mov    %r15,%rax
  205e53:	eb 27                	jmp    205e7c <_ZN4core3fmt9Formatter3pad17h1ffbf0acce254a41E+0x14c>
  205e55:	48 8d 72 01          	lea    0x1(%rdx),%rsi
  205e59:	4c 39 ce             	cmp    %r9,%rsi
  205e5c:	0f 84 87 01 00 00    	je     205fe9 <_ZN4core3fmt9Formatter3pad17h1ffbf0acce254a41E+0x2b9>
  205e62:	0f b6 72 01          	movzbl 0x1(%rdx),%esi
  205e66:	48 83 c2 02          	add    $0x2,%rdx
  205e6a:	83 e6 3f             	and    $0x3f,%esi
  205e6d:	c1 e6 06             	shl    $0x6,%esi
  205e70:	3c e0                	cmp    $0xe0,%al
  205e72:	0f 83 7e 01 00 00    	jae    205ff6 <_ZN4core3fmt9Formatter3pad17h1ffbf0acce254a41E+0x2c6>
  205e78:	eb c0                	jmp    205e3a <_ZN4core3fmt9Formatter3pad17h1ffbf0acce254a41E+0x10a>
  205e7a:	31 c0                	xor    %eax,%eax
  205e7c:	48 85 c0             	test   %rax,%rax
  205e7f:	4c 0f 45 f8          	cmovne %rax,%r15
  205e83:	4c 0f 45 f1          	cmovne %rcx,%r14
  205e87:	49 83 f8 01          	cmp    $0x1,%r8
  205e8b:	0f 85 9c 00 00 00    	jne    205f2d <_ZN4core3fmt9Formatter3pad17h1ffbf0acce254a41E+0x1fd>
  205e91:	4d 85 f6             	test   %r14,%r14
  205e94:	74 66                	je     205efc <_ZN4core3fmt9Formatter3pad17h1ffbf0acce254a41E+0x1cc>
  205e96:	31 c0                	xor    %eax,%eax
  205e98:	4c 89 f1             	mov    %r14,%rcx
  205e9b:	4c 89 fa             	mov    %r15,%rdx
  205e9e:	66 90                	xchg   %ax,%ax
  205ea0:	0f b6 1a             	movzbl (%rdx),%ebx
  205ea3:	48 ff c2             	inc    %rdx
  205ea6:	80 e3 c0             	and    $0xc0,%bl
  205ea9:	31 f6                	xor    %esi,%esi
  205eab:	80 fb 80             	cmp    $0x80,%bl
  205eae:	40 0f 94 c6          	sete   %sil
  205eb2:	48 01 f0             	add    %rsi,%rax
  205eb5:	48 ff c9             	dec    %rcx
  205eb8:	0f 85 e2 ff ff ff    	jne    205ea0 <_ZN4core3fmt9Formatter3pad17h1ffbf0acce254a41E+0x170>
  205ebe:	4c 89 f2             	mov    %r14,%rdx
  205ec1:	48 29 c2             	sub    %rax,%rdx
  205ec4:	49 8b 4d 08          	mov    0x8(%r13),%rcx
  205ec8:	48 39 ca             	cmp    %rcx,%rdx
  205ecb:	0f 83 5c 00 00 00    	jae    205f2d <_ZN4core3fmt9Formatter3pad17h1ffbf0acce254a41E+0x1fd>
  205ed1:	31 c0                	xor    %eax,%eax
  205ed3:	4c 89 f2             	mov    %r14,%rdx
  205ed6:	4c 89 fe             	mov    %r15,%rsi
  205ed9:	0f 1f 80 00 00 00 00 	nopl   0x0(%rax)
  205ee0:	0f b6 1e             	movzbl (%rsi),%ebx
  205ee3:	48 ff c6             	inc    %rsi
  205ee6:	80 e3 c0             	and    $0xc0,%bl
  205ee9:	31 ff                	xor    %edi,%edi
  205eeb:	80 fb 80             	cmp    $0x80,%bl
  205eee:	40 0f 94 c7          	sete   %dil
  205ef2:	48 01 f8             	add    %rdi,%rax
  205ef5:	48 ff ca             	dec    %rdx
  205ef8:	75 e6                	jne    205ee0 <_ZN4core3fmt9Formatter3pad17h1ffbf0acce254a41E+0x1b0>
  205efa:	eb 0b                	jmp    205f07 <_ZN4core3fmt9Formatter3pad17h1ffbf0acce254a41E+0x1d7>
  205efc:	49 8b 4d 08          	mov    0x8(%r13),%rcx
  205f00:	48 85 c9             	test   %rcx,%rcx
  205f03:	74 28                	je     205f2d <_ZN4core3fmt9Formatter3pad17h1ffbf0acce254a41E+0x1fd>
  205f05:	31 c0                	xor    %eax,%eax
  205f07:	4c 29 f0             	sub    %r14,%rax
  205f0a:	48 01 c8             	add    %rcx,%rax
  205f0d:	41 8b 4d 38          	mov    0x38(%r13),%ecx
  205f11:	31 ed                	xor    %ebp,%ebp
  205f13:	80 f9 03             	cmp    $0x3,%cl
  205f16:	0f 44 cd             	cmove  %ebp,%ecx
  205f19:	0f b6 c9             	movzbl %cl,%ecx
  205f1c:	48 89 c3             	mov    %rax,%rbx
  205f1f:	ff 24 cd 50 14 20 00 	jmpq   *0x201450(,%rcx,8)
  205f26:	31 db                	xor    %ebx,%ebx
  205f28:	48 89 c5             	mov    %rax,%rbp
  205f2b:	eb 31                	jmp    205f5e <_ZN4core3fmt9Formatter3pad17h1ffbf0acce254a41E+0x22e>
  205f2d:	49 8b 7d 20          	mov    0x20(%r13),%rdi
  205f31:	49 8b 45 28          	mov    0x28(%r13),%rax
  205f35:	48 8b 40 18          	mov    0x18(%rax),%rax
  205f39:	4c 89 fe             	mov    %r15,%rsi
  205f3c:	4c 89 f2             	mov    %r14,%rdx
  205f3f:	48 83 c4 08          	add    $0x8,%rsp
  205f43:	5b                   	pop    %rbx
  205f44:	41 5c                	pop    %r12
  205f46:	41 5d                	pop    %r13
  205f48:	41 5e                	pop    %r14
  205f4a:	41 5f                	pop    %r15
  205f4c:	5d                   	pop    %rbp
  205f4d:	ff e0                	jmpq   *%rax
  205f4f:	48 89 c5             	mov    %rax,%rbp
  205f52:	48 d1 ed             	shr    %rbp
  205f55:	48 ff c0             	inc    %rax
  205f58:	48 d1 e8             	shr    %rax
  205f5b:	48 89 c3             	mov    %rax,%rbx
  205f5e:	48 ff c5             	inc    %rbp
  205f61:	66 2e 0f 1f 84 00 00 	nopw   %cs:0x0(%rax,%rax,1)
  205f68:	00 00 00 
  205f6b:	0f 1f 44 00 00       	nopl   0x0(%rax,%rax,1)
  205f70:	48 ff cd             	dec    %rbp
  205f73:	74 18                	je     205f8d <_ZN4core3fmt9Formatter3pad17h1ffbf0acce254a41E+0x25d>
  205f75:	49 8b 7d 20          	mov    0x20(%r13),%rdi
  205f79:	49 8b 45 28          	mov    0x28(%r13),%rax
  205f7d:	41 8b 75 34          	mov    0x34(%r13),%esi
  205f81:	ff 50 20             	callq  *0x20(%rax)
  205f84:	84 c0                	test   %al,%al
  205f86:	74 e8                	je     205f70 <_ZN4core3fmt9Formatter3pad17h1ffbf0acce254a41E+0x240>
  205f88:	41 b6 01             	mov    $0x1,%r14b
  205f8b:	eb 4a                	jmp    205fd7 <_ZN4core3fmt9Formatter3pad17h1ffbf0acce254a41E+0x2a7>
  205f8d:	45 8b 65 34          	mov    0x34(%r13),%r12d
  205f91:	49 8b 7d 20          	mov    0x20(%r13),%rdi
  205f95:	49 8b 45 28          	mov    0x28(%r13),%rax
  205f99:	4c 89 fe             	mov    %r15,%rsi
  205f9c:	4c 89 f2             	mov    %r14,%rdx
  205f9f:	ff 50 18             	callq  *0x18(%rax)
  205fa2:	41 b6 01             	mov    $0x1,%r14b
  205fa5:	84 c0                	test   %al,%al
  205fa7:	0f 85 2a 00 00 00    	jne    205fd7 <_ZN4core3fmt9Formatter3pad17h1ffbf0acce254a41E+0x2a7>
  205fad:	4d 8b 7d 20          	mov    0x20(%r13),%r15
  205fb1:	49 8b 6d 28          	mov    0x28(%r13),%rbp
  205fb5:	48 ff c3             	inc    %rbx
  205fb8:	0f 1f 84 00 00 00 00 	nopl   0x0(%rax,%rax,1)
  205fbf:	00 
  205fc0:	48 ff cb             	dec    %rbx
  205fc3:	74 0f                	je     205fd4 <_ZN4core3fmt9Formatter3pad17h1ffbf0acce254a41E+0x2a4>
  205fc5:	4c 89 ff             	mov    %r15,%rdi
  205fc8:	44 89 e6             	mov    %r12d,%esi
  205fcb:	ff 55 20             	callq  *0x20(%rbp)
  205fce:	84 c0                	test   %al,%al
  205fd0:	74 ee                	je     205fc0 <_ZN4core3fmt9Formatter3pad17h1ffbf0acce254a41E+0x290>
  205fd2:	eb 03                	jmp    205fd7 <_ZN4core3fmt9Formatter3pad17h1ffbf0acce254a41E+0x2a7>
  205fd4:	45 31 f6             	xor    %r14d,%r14d
  205fd7:	44 89 f0             	mov    %r14d,%eax
  205fda:	48 83 c4 08          	add    $0x8,%rsp
  205fde:	5b                   	pop    %rbx
  205fdf:	41 5c                	pop    %r12
  205fe1:	41 5d                	pop    %r13
  205fe3:	41 5e                	pop    %r14
  205fe5:	41 5f                	pop    %r15
  205fe7:	5d                   	pop    %rbp
  205fe8:	c3                   	retq   
  205fe9:	31 f6                	xor    %esi,%esi
  205feb:	4c 89 ca             	mov    %r9,%rdx
  205fee:	3c e0                	cmp    $0xe0,%al
  205ff0:	0f 82 44 fe ff ff    	jb     205e3a <_ZN4core3fmt9Formatter3pad17h1ffbf0acce254a41E+0x10a>
  205ff6:	4c 39 ca             	cmp    %r9,%rdx
  205ff9:	74 12                	je     20600d <_ZN4core3fmt9Formatter3pad17h1ffbf0acce254a41E+0x2dd>
  205ffb:	0f b6 3a             	movzbl (%rdx),%edi
  205ffe:	48 ff c2             	inc    %rdx
  206001:	83 e7 3f             	and    $0x3f,%edi
  206004:	3c f0                	cmp    $0xf0,%al
  206006:	73 12                	jae    20601a <_ZN4core3fmt9Formatter3pad17h1ffbf0acce254a41E+0x2ea>
  206008:	e9 2d fe ff ff       	jmpq   205e3a <_ZN4core3fmt9Formatter3pad17h1ffbf0acce254a41E+0x10a>
  20600d:	31 ff                	xor    %edi,%edi
  20600f:	4c 89 ca             	mov    %r9,%rdx
  206012:	3c f0                	cmp    $0xf0,%al
  206014:	0f 82 20 fe ff ff    	jb     205e3a <_ZN4core3fmt9Formatter3pad17h1ffbf0acce254a41E+0x10a>
  20601a:	09 f7                	or     %esi,%edi
  20601c:	4c 39 ca             	cmp    %r9,%rdx
  20601f:	74 08                	je     206029 <_ZN4core3fmt9Formatter3pad17h1ffbf0acce254a41E+0x2f9>
  206021:	0f b6 12             	movzbl (%rdx),%edx
  206024:	83 e2 3f             	and    $0x3f,%edx
  206027:	eb 02                	jmp    20602b <_ZN4core3fmt9Formatter3pad17h1ffbf0acce254a41E+0x2fb>
  206029:	31 d2                	xor    %edx,%edx
  20602b:	83 e0 07             	and    $0x7,%eax
  20602e:	c1 e0 12             	shl    $0x12,%eax
  206031:	c1 e7 06             	shl    $0x6,%edi
  206034:	09 c7                	or     %eax,%edi
  206036:	09 d7                	or     %edx,%edi
  206038:	81 ff 00 00 11 00    	cmp    $0x110000,%edi
  20603e:	0f 84 43 fe ff ff    	je     205e87 <_ZN4core3fmt9Formatter3pad17h1ffbf0acce254a41E+0x157>
  206044:	e9 f1 fd ff ff       	jmpq   205e3a <_ZN4core3fmt9Formatter3pad17h1ffbf0acce254a41E+0x10a>
  206049:	cc                   	int3   
  20604a:	cc                   	int3   
  20604b:	cc                   	int3   
  20604c:	cc                   	int3   
  20604d:	cc                   	int3   
  20604e:	cc                   	int3   
  20604f:	cc                   	int3   

0000000000206050 <_ZN4core3fmt9Formatter15debug_lower_hex17h9e136e898ec3b523E>:
  206050:	8a 47 30             	mov    0x30(%rdi),%al
  206053:	24 10                	and    $0x10,%al
  206055:	c0 e8 04             	shr    $0x4,%al
  206058:	c3                   	retq   
  206059:	cc                   	int3   
  20605a:	cc                   	int3   
  20605b:	cc                   	int3   
  20605c:	cc                   	int3   
  20605d:	cc                   	int3   
  20605e:	cc                   	int3   
  20605f:	cc                   	int3   

0000000000206060 <_ZN4core3fmt9Formatter15debug_upper_hex17h18a7f191c385ba9fE>:
  206060:	8a 47 30             	mov    0x30(%rdi),%al
  206063:	24 20                	and    $0x20,%al
  206065:	c0 e8 05             	shr    $0x5,%al
  206068:	c3                   	retq   
  206069:	cc                   	int3   
  20606a:	cc                   	int3   
  20606b:	cc                   	int3   
  20606c:	cc                   	int3   
  20606d:	cc                   	int3   
  20606e:	cc                   	int3   
  20606f:	cc                   	int3   

0000000000206070 <_ZN4core3fmt9Formatter11debug_tuple17h1587f250771d606eE>:
  206070:	41 57                	push   %r15
  206072:	41 56                	push   %r14
  206074:	53                   	push   %rbx
  206075:	49 89 ce             	mov    %rcx,%r14
  206078:	49 89 f7             	mov    %rsi,%r15
  20607b:	48 89 fb             	mov    %rdi,%rbx
  20607e:	48 8b 7e 20          	mov    0x20(%rsi),%rdi
  206082:	48 8b 46 28          	mov    0x28(%rsi),%rax
  206086:	48 89 d6             	mov    %rdx,%rsi
  206089:	48 89 ca             	mov    %rcx,%rdx
  20608c:	ff 50 18             	callq  *0x18(%rax)
  20608f:	4d 85 f6             	test   %r14,%r14
  206092:	4c 89 3b             	mov    %r15,(%rbx)
  206095:	88 43 10             	mov    %al,0x10(%rbx)
  206098:	48 c7 43 08 00 00 00 	movq   $0x0,0x8(%rbx)
  20609f:	00 
  2060a0:	0f 94 43 11          	sete   0x11(%rbx)
  2060a4:	48 89 d8             	mov    %rbx,%rax
  2060a7:	5b                   	pop    %rbx
  2060a8:	41 5e                	pop    %r14
  2060aa:	41 5f                	pop    %r15
  2060ac:	c3                   	retq   
  2060ad:	cc                   	int3   
  2060ae:	cc                   	int3   
  2060af:	cc                   	int3   

00000000002060b0 <_ZN41_$LT$char$u20$as$u20$core..fmt..Debug$GT$3fmt17h12063f2fd3adcd3bE>:
  2060b0:	55                   	push   %rbp
  2060b1:	41 57                	push   %r15
  2060b3:	41 56                	push   %r14
  2060b5:	41 55                	push   %r13
  2060b7:	41 54                	push   %r12
  2060b9:	53                   	push   %rbx
  2060ba:	50                   	push   %rax
  2060bb:	49 89 f7             	mov    %rsi,%r15
  2060be:	48 89 fb             	mov    %rdi,%rbx
  2060c1:	48 8b 7e 20          	mov    0x20(%rsi),%rdi
  2060c5:	48 8b 46 28          	mov    0x28(%rsi),%rax
  2060c9:	be 27 00 00 00       	mov    $0x27,%esi
  2060ce:	ff 50 20             	callq  *0x20(%rax)
  2060d1:	84 c0                	test   %al,%al
  2060d3:	74 11                	je     2060e6 <_ZN41_$LT$char$u20$as$u20$core..fmt..Debug$GT$3fmt17h12063f2fd3adcd3bE+0x36>
  2060d5:	b0 01                	mov    $0x1,%al
  2060d7:	48 83 c4 08          	add    $0x8,%rsp
  2060db:	5b                   	pop    %rbx
  2060dc:	41 5c                	pop    %r12
  2060de:	41 5d                	pop    %r13
  2060e0:	41 5e                	pop    %r14
  2060e2:	41 5f                	pop    %r15
  2060e4:	5d                   	pop    %rbp
  2060e5:	c3                   	retq   
  2060e6:	44 8b 33             	mov    (%rbx),%r14d
  2060e9:	bd 02 00 00 00       	mov    $0x2,%ebp
  2060ee:	41 8d 46 f7          	lea    -0x9(%r14),%eax
  2060f2:	83 f8 1e             	cmp    $0x1e,%eax
  2060f5:	77 18                	ja     20610f <_ZN41_$LT$char$u20$as$u20$core..fmt..Debug$GT$3fmt17h12063f2fd3adcd3bE+0x5f>
  2060f7:	41 bd 74 00 00 00    	mov    $0x74,%r13d
  2060fd:	ff 24 c5 70 14 20 00 	jmpq   *0x201470(,%rax,8)
  206104:	41 bd 6e 00 00 00    	mov    $0x6e,%r13d
  20610a:	e9 37 01 00 00       	jmpq   206246 <_ZN41_$LT$char$u20$as$u20$core..fmt..Debug$GT$3fmt17h12063f2fd3adcd3bE+0x196>
  20610f:	41 83 fe 5c          	cmp    $0x5c,%r14d
  206113:	0f 84 ff 00 00 00    	je     206218 <_ZN41_$LT$char$u20$as$u20$core..fmt..Debug$GT$3fmt17h12063f2fd3adcd3bE+0x168>
  206119:	44 89 f7             	mov    %r14d,%edi
  20611c:	e8 bf f4 ff ff       	callq  2055e0 <_ZN4core7unicode12unicode_data15grapheme_extend6lookup17h032a8f7d39eb277cE>
  206121:	84 c0                	test   %al,%al
  206123:	0f 85 f4 00 00 00    	jne    20621d <_ZN41_$LT$char$u20$as$u20$core..fmt..Debug$GT$3fmt17h12063f2fd3adcd3bE+0x16d>
  206129:	41 81 fe 00 00 01 00 	cmp    $0x10000,%r14d
  206130:	73 43                	jae    206175 <_ZN41_$LT$char$u20$as$u20$core..fmt..Debug$GT$3fmt17h12063f2fd3adcd3bE+0xc5>
  206132:	48 c7 04 24 35 01 00 	movq   $0x135,(%rsp)
  206139:	00 
  20613a:	be 28 0a 20 00       	mov    $0x200a28,%esi
  20613f:	ba 29 00 00 00       	mov    $0x29,%edx
  206144:	b9 7a 0a 20 00       	mov    $0x200a7a,%ecx
  206149:	41 b8 22 01 00 00    	mov    $0x122,%r8d
  20614f:	41 b9 9c 0b 20 00    	mov    $0x200b9c,%r9d
  206155:	44 89 f7             	mov    %r14d,%edi
  206158:	e8 d3 f0 ff ff       	callq  205230 <_ZN4core7unicode9printable5check17h92b7e31da5aa2c88E.llvm.9653718370404087441>
  20615d:	84 c0                	test   %al,%al
  20615f:	0f 85 ae 00 00 00    	jne    206213 <_ZN41_$LT$char$u20$as$u20$core..fmt..Debug$GT$3fmt17h12063f2fd3adcd3bE+0x163>
  206165:	e9 b3 00 00 00       	jmpq   20621d <_ZN41_$LT$char$u20$as$u20$core..fmt..Debug$GT$3fmt17h12063f2fd3adcd3bE+0x16d>
  20616a:	41 bd 72 00 00 00    	mov    $0x72,%r13d
  206170:	e9 d1 00 00 00       	jmpq   206246 <_ZN41_$LT$char$u20$as$u20$core..fmt..Debug$GT$3fmt17h12063f2fd3adcd3bE+0x196>
  206175:	41 81 fe 00 00 02 00 	cmp    $0x20000,%r14d
  20617c:	73 31                	jae    2061af <_ZN41_$LT$char$u20$as$u20$core..fmt..Debug$GT$3fmt17h12063f2fd3adcd3bE+0xff>
  20617e:	48 c7 04 24 a3 01 00 	movq   $0x1a3,(%rsp)
  206185:	00 
  206186:	be d1 0c 20 00       	mov    $0x200cd1,%esi
  20618b:	ba 26 00 00 00       	mov    $0x26,%edx
  206190:	b9 1d 0d 20 00       	mov    $0x200d1d,%ecx
  206195:	41 b8 af 00 00 00    	mov    $0xaf,%r8d
  20619b:	41 b9 cc 0d 20 00    	mov    $0x200dcc,%r9d
  2061a1:	44 89 f7             	mov    %r14d,%edi
  2061a4:	e8 87 f0 ff ff       	callq  205230 <_ZN4core7unicode9printable5check17h92b7e31da5aa2c88E.llvm.9653718370404087441>
  2061a9:	84 c0                	test   %al,%al
  2061ab:	75 66                	jne    206213 <_ZN41_$LT$char$u20$as$u20$core..fmt..Debug$GT$3fmt17h12063f2fd3adcd3bE+0x163>
  2061ad:	eb 6e                	jmp    20621d <_ZN41_$LT$char$u20$as$u20$core..fmt..Debug$GT$3fmt17h12063f2fd3adcd3bE+0x16d>
  2061af:	41 81 fe ef 01 0e 00 	cmp    $0xe01ef,%r14d
  2061b6:	77 65                	ja     20621d <_ZN41_$LT$char$u20$as$u20$core..fmt..Debug$GT$3fmt17h12063f2fd3adcd3bE+0x16d>
  2061b8:	41 8d 86 b5 ec fc ff 	lea    -0x3134b(%r14),%eax
  2061bf:	3d b5 ed 0a 00       	cmp    $0xaedb5,%eax
  2061c4:	72 57                	jb     20621d <_ZN41_$LT$char$u20$as$u20$core..fmt..Debug$GT$3fmt17h12063f2fd3adcd3bE+0x16d>
  2061c6:	41 8d 86 e2 05 fd ff 	lea    -0x2fa1e(%r14),%eax
  2061cd:	3d e2 05 00 00       	cmp    $0x5e2,%eax
  2061d2:	72 49                	jb     20621d <_ZN41_$LT$char$u20$as$u20$core..fmt..Debug$GT$3fmt17h12063f2fd3adcd3bE+0x16d>
  2061d4:	41 8d 86 1f 14 fd ff 	lea    -0x2ebe1(%r14),%eax
  2061db:	3d 1f 0c 00 00       	cmp    $0xc1f,%eax
  2061e0:	72 3b                	jb     20621d <_ZN41_$LT$char$u20$as$u20$core..fmt..Debug$GT$3fmt17h12063f2fd3adcd3bE+0x16d>
  2061e2:	41 8d 86 5e 31 fd ff 	lea    -0x2cea2(%r14),%eax
  2061e9:	83 f8 0e             	cmp    $0xe,%eax
  2061ec:	72 2f                	jb     20621d <_ZN41_$LT$char$u20$as$u20$core..fmt..Debug$GT$3fmt17h12063f2fd3adcd3bE+0x16d>
  2061ee:	44 89 f0             	mov    %r14d,%eax
  2061f1:	83 e0 fe             	and    $0xfffffffe,%eax
  2061f4:	3d 1e b8 02 00       	cmp    $0x2b81e,%eax
  2061f9:	74 22                	je     20621d <_ZN41_$LT$char$u20$as$u20$core..fmt..Debug$GT$3fmt17h12063f2fd3adcd3bE+0x16d>
  2061fb:	41 8d 86 22 59 fd ff 	lea    -0x2a6de(%r14),%eax
  206202:	83 f8 22             	cmp    $0x22,%eax
  206205:	72 16                	jb     20621d <_ZN41_$LT$char$u20$as$u20$core..fmt..Debug$GT$3fmt17h12063f2fd3adcd3bE+0x16d>
  206207:	41 8d 86 cb 48 fd ff 	lea    -0x2b735(%r14),%eax
  20620e:	83 f8 0a             	cmp    $0xa,%eax
  206211:	76 0a                	jbe    20621d <_ZN41_$LT$char$u20$as$u20$core..fmt..Debug$GT$3fmt17h12063f2fd3adcd3bE+0x16d>
  206213:	bd 01 00 00 00       	mov    $0x1,%ebp
  206218:	45 89 f5             	mov    %r14d,%r13d
  20621b:	eb 29                	jmp    206246 <_ZN41_$LT$char$u20$as$u20$core..fmt..Debug$GT$3fmt17h12063f2fd3adcd3bE+0x196>
  20621d:	44 89 f0             	mov    %r14d,%eax
  206220:	41 83 ce 01          	or     $0x1,%r14d
  206224:	45 0f bd e6          	bsr    %r14d,%r12d
  206228:	41 83 f4 1c          	xor    $0x1c,%r12d
  20622c:	41 c1 ec 02          	shr    $0x2,%r12d
  206230:	41 83 f4 07          	xor    $0x7,%r12d
  206234:	48 bb 00 00 00 00 05 	movabs $0x500000000,%rbx
  20623b:	00 00 00 
  20623e:	48 09 c3             	or     %rax,%rbx
  206241:	bd 03 00 00 00       	mov    $0x3,%ebp
  206246:	49 be ff ff ff ff 00 	movabs $0xffffff00ffffffff,%r14
  20624d:	ff ff ff 
  206250:	e9 23 00 00 00       	jmpq   206278 <_ZN41_$LT$char$u20$as$u20$core..fmt..Debug$GT$3fmt17h12063f2fd3adcd3bE+0x1c8>
  206255:	66 2e 0f 1f 84 00 00 	nopw   %cs:0x0(%rax,%rax,1)
  20625c:	00 00 00 
  20625f:	90                   	nop
  206260:	31 ed                	xor    %ebp,%ebp
  206262:	44 89 ee             	mov    %r13d,%esi
  206265:	49 8b 7f 20          	mov    0x20(%r15),%rdi
  206269:	49 8b 47 28          	mov    0x28(%r15),%rax
  20626d:	ff 50 20             	callq  *0x20(%rax)
  206270:	84 c0                	test   %al,%al
  206272:	0f 85 5d fe ff ff    	jne    2060d5 <_ZN41_$LT$char$u20$as$u20$core..fmt..Debug$GT$3fmt17h12063f2fd3adcd3bE+0x25>
  206278:	be 5c 00 00 00       	mov    $0x5c,%esi
  20627d:	89 e8                	mov    %ebp,%eax
  20627f:	bd 01 00 00 00       	mov    $0x1,%ebp
  206284:	ff 24 c5 68 15 20 00 	jmpq   *0x201568(,%rax,8)
  20628b:	48 89 d8             	mov    %rbx,%rax
  20628e:	48 c1 e8 20          	shr    $0x20,%rax
  206292:	0f b6 c0             	movzbl %al,%eax
  206295:	ff 24 c5 88 15 20 00 	jmpq   *0x201588(,%rax,8)
  20629c:	4c 21 f3             	and    %r14,%rbx
  20629f:	bd 03 00 00 00       	mov    $0x3,%ebp
  2062a4:	be 7d 00 00 00       	mov    $0x7d,%esi
  2062a9:	eb ba                	jmp    206265 <_ZN41_$LT$char$u20$as$u20$core..fmt..Debug$GT$3fmt17h12063f2fd3adcd3bE+0x1b5>
  2062ab:	42 8d 0c a5 00 00 00 	lea    0x0(,%r12,4),%ecx
  2062b2:	00 
  2062b3:	89 d8                	mov    %ebx,%eax
  2062b5:	d3 e8                	shr    %cl,%eax
  2062b7:	83 e0 0f             	and    $0xf,%eax
  2062ba:	3c 0a                	cmp    $0xa,%al
  2062bc:	be 57 00 00 00       	mov    $0x57,%esi
  2062c1:	b9 30 00 00 00       	mov    $0x30,%ecx
  2062c6:	0f 42 f1             	cmovb  %ecx,%esi
  2062c9:	01 c6                	add    %eax,%esi
  2062cb:	4d 85 e4             	test   %r12,%r12
  2062ce:	74 57                	je     206327 <_ZN41_$LT$char$u20$as$u20$core..fmt..Debug$GT$3fmt17h12063f2fd3adcd3bE+0x277>
  2062d0:	49 ff cc             	dec    %r12
  2062d3:	bd 03 00 00 00       	mov    $0x3,%ebp
  2062d8:	eb 8b                	jmp    206265 <_ZN41_$LT$char$u20$as$u20$core..fmt..Debug$GT$3fmt17h12063f2fd3adcd3bE+0x1b5>
  2062da:	4c 21 f3             	and    %r14,%rbx
  2062dd:	48 b8 00 00 00 00 02 	movabs $0x200000000,%rax
  2062e4:	00 00 00 
  2062e7:	48 09 c3             	or     %rax,%rbx
  2062ea:	bd 03 00 00 00       	mov    $0x3,%ebp
  2062ef:	be 7b 00 00 00       	mov    $0x7b,%esi
  2062f4:	e9 6c ff ff ff       	jmpq   206265 <_ZN41_$LT$char$u20$as$u20$core..fmt..Debug$GT$3fmt17h12063f2fd3adcd3bE+0x1b5>
  2062f9:	4c 21 f3             	and    %r14,%rbx
  2062fc:	48 b8 00 00 00 00 03 	movabs $0x300000000,%rax
  206303:	00 00 00 
  206306:	48 09 c3             	or     %rax,%rbx
  206309:	bd 03 00 00 00       	mov    $0x3,%ebp
  20630e:	be 75 00 00 00       	mov    $0x75,%esi
  206313:	e9 4d ff ff ff       	jmpq   206265 <_ZN41_$LT$char$u20$as$u20$core..fmt..Debug$GT$3fmt17h12063f2fd3adcd3bE+0x1b5>
  206318:	4c 21 f3             	and    %r14,%rbx
  20631b:	48 b8 00 00 00 00 04 	movabs $0x400000000,%rax
  206322:	00 00 00 
  206325:	eb 0d                	jmp    206334 <_ZN41_$LT$char$u20$as$u20$core..fmt..Debug$GT$3fmt17h12063f2fd3adcd3bE+0x284>
  206327:	4c 21 f3             	and    %r14,%rbx
  20632a:	48 b8 00 00 00 00 01 	movabs $0x100000000,%rax
  206331:	00 00 00 
  206334:	48 09 c3             	or     %rax,%rbx
  206337:	bd 03 00 00 00       	mov    $0x3,%ebp
  20633c:	e9 24 ff ff ff       	jmpq   206265 <_ZN41_$LT$char$u20$as$u20$core..fmt..Debug$GT$3fmt17h12063f2fd3adcd3bE+0x1b5>
  206341:	49 8b 7f 20          	mov    0x20(%r15),%rdi
  206345:	49 8b 47 28          	mov    0x28(%r15),%rax
  206349:	48 8b 40 20          	mov    0x20(%rax),%rax
  20634d:	be 27 00 00 00       	mov    $0x27,%esi
  206352:	48 83 c4 08          	add    $0x8,%rsp
  206356:	5b                   	pop    %rbx
  206357:	41 5c                	pop    %r12
  206359:	41 5d                	pop    %r13
  20635b:	41 5e                	pop    %r14
  20635d:	41 5f                	pop    %r15
  20635f:	5d                   	pop    %rbp
  206360:	ff e0                	jmpq   *%rax
  206362:	cc                   	int3   
  206363:	cc                   	int3   
  206364:	cc                   	int3   
  206365:	cc                   	int3   
  206366:	cc                   	int3   
  206367:	cc                   	int3   
  206368:	cc                   	int3   
  206369:	cc                   	int3   
  20636a:	cc                   	int3   
  20636b:	cc                   	int3   
  20636c:	cc                   	int3   
  20636d:	cc                   	int3   
  20636e:	cc                   	int3   
  20636f:	cc                   	int3   

0000000000206370 <_ZN42_$LT$$RF$T$u20$as$u20$core..fmt..Debug$GT$3fmt17h2f249bcbea737cefE>:
  206370:	48 8b 07             	mov    (%rdi),%rax
  206373:	48 8b 4f 08          	mov    0x8(%rdi),%rcx
  206377:	48 8b 49 18          	mov    0x18(%rcx),%rcx
  20637b:	48 89 c7             	mov    %rax,%rdi
  20637e:	ff e1                	jmpq   *%rcx

0000000000206380 <_ZN44_$LT$$RF$T$u20$as$u20$core..fmt..Display$GT$3fmt17hc4598348778a8312E>:
  206380:	48 89 f0             	mov    %rsi,%rax
  206383:	48 8b 37             	mov    (%rdi),%rsi
  206386:	48 8b 57 08          	mov    0x8(%rdi),%rdx
  20638a:	48 89 c7             	mov    %rax,%rdi
  20638d:	e9 9e f9 ff ff       	jmpq   205d30 <_ZN4core3fmt9Formatter3pad17h1ffbf0acce254a41E>
  206392:	cc                   	int3   
  206393:	cc                   	int3   
  206394:	cc                   	int3   
  206395:	cc                   	int3   
  206396:	cc                   	int3   
  206397:	cc                   	int3   
  206398:	cc                   	int3   
  206399:	cc                   	int3   
  20639a:	cc                   	int3   
  20639b:	cc                   	int3   
  20639c:	cc                   	int3   
  20639d:	cc                   	int3   
  20639e:	cc                   	int3   
  20639f:	cc                   	int3   

00000000002063a0 <_ZN4core3ptr13drop_in_place17h332aa5323e52ab12E.llvm.6844860139113268560>:
  2063a0:	c3                   	retq   
  2063a1:	cc                   	int3   
  2063a2:	cc                   	int3   
  2063a3:	cc                   	int3   
  2063a4:	cc                   	int3   
  2063a5:	cc                   	int3   
  2063a6:	cc                   	int3   
  2063a7:	cc                   	int3   
  2063a8:	cc                   	int3   
  2063a9:	cc                   	int3   
  2063aa:	cc                   	int3   
  2063ab:	cc                   	int3   
  2063ac:	cc                   	int3   
  2063ad:	cc                   	int3   
  2063ae:	cc                   	int3   
  2063af:	cc                   	int3   

00000000002063b0 <_ZN68_$LT$core..fmt..builders..PadAdapter$u20$as$u20$core..fmt..Write$GT$9write_str17h8c71a56a95677c47E>:
  2063b0:	55                   	push   %rbp
  2063b1:	41 57                	push   %r15
  2063b3:	41 56                	push   %r14
  2063b5:	41 55                	push   %r13
  2063b7:	41 54                	push   %r12
  2063b9:	53                   	push   %rbx
  2063ba:	50                   	push   %rax
  2063bb:	48 85 d2             	test   %rdx,%rdx
  2063be:	0f 84 50 02 00 00    	je     206614 <_ZN68_$LT$core..fmt..builders..PadAdapter$u20$as$u20$core..fmt..Write$GT$9write_str17h8c71a56a95677c47E+0x264>
  2063c4:	49 89 d5             	mov    %rdx,%r13
  2063c7:	48 89 f5             	mov    %rsi,%rbp
  2063ca:	48 89 fb             	mov    %rdi,%rbx
  2063cd:	49 be 80 80 80 80 80 	movabs $0x8080808080808080,%r14
  2063d4:	80 80 80 
  2063d7:	49 bf 0a 0a 0a 0a 0a 	movabs $0xa0a0a0a0a0a0a0a,%r15
  2063de:	0a 0a 0a 
  2063e1:	48 89 3c 24          	mov    %rdi,(%rsp)
  2063e5:	e9 27 00 00 00       	jmpq   206411 <_ZN68_$LT$core..fmt..builders..PadAdapter$u20$as$u20$core..fmt..Write$GT$9write_str17h8c71a56a95677c47E+0x61>
  2063ea:	66 0f 1f 44 00 00    	nopw   0x0(%rax,%rax,1)
  2063f0:	48 89 ee             	mov    %rbp,%rsi
  2063f3:	4c 89 e2             	mov    %r12,%rdx
  2063f6:	ff 51 18             	callq  *0x18(%rcx)
  2063f9:	84 c0                	test   %al,%al
  2063fb:	0f 85 17 02 00 00    	jne    206618 <_ZN68_$LT$core..fmt..builders..PadAdapter$u20$as$u20$core..fmt..Write$GT$9write_str17h8c71a56a95677c47E+0x268>
  206401:	4c 01 e5             	add    %r12,%rbp
  206404:	4d 29 e5             	sub    %r12,%r13
  206407:	48 8b 1c 24          	mov    (%rsp),%rbx
  20640b:	0f 84 03 02 00 00    	je     206614 <_ZN68_$LT$core..fmt..builders..PadAdapter$u20$as$u20$core..fmt..Write$GT$9write_str17h8c71a56a95677c47E+0x264>
  206411:	48 8b 43 10          	mov    0x10(%rbx),%rax
  206415:	80 38 00             	cmpb   $0x0,(%rax)
  206418:	74 1c                	je     206436 <_ZN68_$LT$core..fmt..builders..PadAdapter$u20$as$u20$core..fmt..Write$GT$9write_str17h8c71a56a95677c47E+0x86>
  20641a:	48 8b 3b             	mov    (%rbx),%rdi
  20641d:	48 8b 43 08          	mov    0x8(%rbx),%rax
  206421:	be ae 08 20 00       	mov    $0x2008ae,%esi
  206426:	ba 04 00 00 00       	mov    $0x4,%edx
  20642b:	ff 50 18             	callq  *0x18(%rax)
  20642e:	84 c0                	test   %al,%al
  206430:	0f 85 e2 01 00 00    	jne    206618 <_ZN68_$LT$core..fmt..builders..PadAdapter$u20$as$u20$core..fmt..Write$GT$9write_str17h8c71a56a95677c47E+0x268>
  206436:	4c 8d 45 08          	lea    0x8(%rbp),%r8
  20643a:	45 31 e4             	xor    %r12d,%r12d
  20643d:	4c 89 ee             	mov    %r13,%rsi
  206440:	e9 17 00 00 00       	jmpq   20645c <_ZN68_$LT$core..fmt..builders..PadAdapter$u20$as$u20$core..fmt..Write$GT$9write_str17h8c71a56a95677c47E+0xac>
  206445:	66 2e 0f 1f 84 00 00 	nopw   %cs:0x0(%rax,%rax,1)
  20644c:	00 00 00 
  20644f:	90                   	nop
  206450:	4c 89 ee             	mov    %r13,%rsi
  206453:	4c 29 e6             	sub    %r12,%rsi
  206456:	0f 82 54 01 00 00    	jb     2065b0 <_ZN68_$LT$core..fmt..builders..PadAdapter$u20$as$u20$core..fmt..Write$GT$9write_str17h8c71a56a95677c47E+0x200>
  20645c:	4a 8d 4c 25 00       	lea    0x0(%rbp,%r12,1),%rcx
  206461:	48 83 fe 0f          	cmp    $0xf,%rsi
  206465:	0f 87 35 00 00 00    	ja     2064a0 <_ZN68_$LT$core..fmt..builders..PadAdapter$u20$as$u20$core..fmt..Write$GT$9write_str17h8c71a56a95677c47E+0xf0>
  20646b:	48 85 f6             	test   %rsi,%rsi
  20646e:	0f 84 3c 01 00 00    	je     2065b0 <_ZN68_$LT$core..fmt..builders..PadAdapter$u20$as$u20$core..fmt..Write$GT$9write_str17h8c71a56a95677c47E+0x200>
  206474:	4c 89 ee             	mov    %r13,%rsi
  206477:	4c 29 e6             	sub    %r12,%rsi
  20647a:	31 d2                	xor    %edx,%edx
  20647c:	0f 1f 40 00          	nopl   0x0(%rax)
  206480:	80 3c 11 0a          	cmpb   $0xa,(%rcx,%rdx,1)
  206484:	0f 84 fc 00 00 00    	je     206586 <_ZN68_$LT$core..fmt..builders..PadAdapter$u20$as$u20$core..fmt..Write$GT$9write_str17h8c71a56a95677c47E+0x1d6>
  20648a:	48 ff c2             	inc    %rdx
  20648d:	48 39 d6             	cmp    %rdx,%rsi
  206490:	0f 85 ea ff ff ff    	jne    206480 <_ZN68_$LT$core..fmt..builders..PadAdapter$u20$as$u20$core..fmt..Write$GT$9write_str17h8c71a56a95677c47E+0xd0>
  206496:	e9 15 01 00 00       	jmpq   2065b0 <_ZN68_$LT$core..fmt..builders..PadAdapter$u20$as$u20$core..fmt..Write$GT$9write_str17h8c71a56a95677c47E+0x200>
  20649b:	0f 1f 44 00 00       	nopl   0x0(%rax,%rax,1)
  2064a0:	48 8d 79 07          	lea    0x7(%rcx),%rdi
  2064a4:	48 83 e7 f8          	and    $0xfffffffffffffff8,%rdi
  2064a8:	48 29 cf             	sub    %rcx,%rdi
  2064ab:	74 43                	je     2064f0 <_ZN68_$LT$core..fmt..builders..PadAdapter$u20$as$u20$core..fmt..Write$GT$9write_str17h8c71a56a95677c47E+0x140>
  2064ad:	48 39 f7             	cmp    %rsi,%rdi
  2064b0:	48 0f 47 fe          	cmova  %rsi,%rdi
  2064b4:	48 85 ff             	test   %rdi,%rdi
  2064b7:	0f 84 33 00 00 00    	je     2064f0 <_ZN68_$LT$core..fmt..builders..PadAdapter$u20$as$u20$core..fmt..Write$GT$9write_str17h8c71a56a95677c47E+0x140>
  2064bd:	31 d2                	xor    %edx,%edx
  2064bf:	90                   	nop
  2064c0:	80 3c 11 0a          	cmpb   $0xa,(%rcx,%rdx,1)
  2064c4:	0f 84 bc 00 00 00    	je     206586 <_ZN68_$LT$core..fmt..builders..PadAdapter$u20$as$u20$core..fmt..Write$GT$9write_str17h8c71a56a95677c47E+0x1d6>
  2064ca:	48 ff c2             	inc    %rdx
  2064cd:	48 39 d7             	cmp    %rdx,%rdi
  2064d0:	75 ee                	jne    2064c0 <_ZN68_$LT$core..fmt..builders..PadAdapter$u20$as$u20$core..fmt..Write$GT$9write_str17h8c71a56a95677c47E+0x110>
  2064d2:	4c 8d 4e f0          	lea    -0x10(%rsi),%r9
  2064d6:	4c 39 cf             	cmp    %r9,%rdi
  2064d9:	0f 86 17 00 00 00    	jbe    2064f6 <_ZN68_$LT$core..fmt..builders..PadAdapter$u20$as$u20$core..fmt..Write$GT$9write_str17h8c71a56a95677c47E+0x146>
  2064df:	90                   	nop
  2064e0:	48 39 f7             	cmp    %rsi,%rdi
  2064e3:	0f 85 76 00 00 00    	jne    20655f <_ZN68_$LT$core..fmt..builders..PadAdapter$u20$as$u20$core..fmt..Write$GT$9write_str17h8c71a56a95677c47E+0x1af>
  2064e9:	e9 c2 00 00 00       	jmpq   2065b0 <_ZN68_$LT$core..fmt..builders..PadAdapter$u20$as$u20$core..fmt..Write$GT$9write_str17h8c71a56a95677c47E+0x200>
  2064ee:	66 90                	xchg   %ax,%ax
  2064f0:	4c 8d 4e f0          	lea    -0x10(%rsi),%r9
  2064f4:	31 ff                	xor    %edi,%edi
  2064f6:	49 89 eb             	mov    %rbp,%r11
  2064f9:	4d 89 ea             	mov    %r13,%r10
  2064fc:	4b 8d 14 20          	lea    (%r8,%r12,1),%rdx
  206500:	49 bd ff fe fe fe fe 	movabs $0xfefefefefefefeff,%r13
  206507:	fe fe fe 
  20650a:	66 0f 1f 44 00 00    	nopw   0x0(%rax,%rax,1)
  206510:	48 8b 44 3a f8       	mov    -0x8(%rdx,%rdi,1),%rax
  206515:	48 8b 0c 3a          	mov    (%rdx,%rdi,1),%rcx
  206519:	48 89 c3             	mov    %rax,%rbx
  20651c:	48 f7 d3             	not    %rbx
  20651f:	48 89 cd             	mov    %rcx,%rbp
  206522:	48 f7 d5             	not    %rbp
  206525:	4c 31 f8             	xor    %r15,%rax
  206528:	4c 01 e8             	add    %r13,%rax
  20652b:	4c 21 f3             	and    %r14,%rbx
  20652e:	48 21 c3             	and    %rax,%rbx
  206531:	4c 31 f9             	xor    %r15,%rcx
  206534:	4c 01 e9             	add    %r13,%rcx
  206537:	4c 21 f5             	and    %r14,%rbp
  20653a:	48 21 cd             	and    %rcx,%rbp
  20653d:	48 09 dd             	or     %rbx,%rbp
  206540:	75 09                	jne    20654b <_ZN68_$LT$core..fmt..builders..PadAdapter$u20$as$u20$core..fmt..Write$GT$9write_str17h8c71a56a95677c47E+0x19b>
  206542:	48 83 c7 10          	add    $0x10,%rdi
  206546:	4c 39 cf             	cmp    %r9,%rdi
  206549:	76 c5                	jbe    206510 <_ZN68_$LT$core..fmt..builders..PadAdapter$u20$as$u20$core..fmt..Write$GT$9write_str17h8c71a56a95677c47E+0x160>
  20654b:	48 39 f7             	cmp    %rsi,%rdi
  20654e:	0f 87 d5 00 00 00    	ja     206629 <_ZN68_$LT$core..fmt..builders..PadAdapter$u20$as$u20$core..fmt..Write$GT$9write_str17h8c71a56a95677c47E+0x279>
  206554:	4d 89 d5             	mov    %r10,%r13
  206557:	4c 89 dd             	mov    %r11,%rbp
  20655a:	48 39 f7             	cmp    %rsi,%rdi
  20655d:	74 51                	je     2065b0 <_ZN68_$LT$core..fmt..builders..PadAdapter$u20$as$u20$core..fmt..Write$GT$9write_str17h8c71a56a95677c47E+0x200>
  20655f:	4a 8d 0c 27          	lea    (%rdi,%r12,1),%rcx
  206563:	48 01 e9             	add    %rbp,%rcx
  206566:	48 29 fe             	sub    %rdi,%rsi
  206569:	31 d2                	xor    %edx,%edx
  20656b:	0f 1f 44 00 00       	nopl   0x0(%rax,%rax,1)
  206570:	80 3c 11 0a          	cmpb   $0xa,(%rcx,%rdx,1)
  206574:	74 0a                	je     206580 <_ZN68_$LT$core..fmt..builders..PadAdapter$u20$as$u20$core..fmt..Write$GT$9write_str17h8c71a56a95677c47E+0x1d0>
  206576:	48 ff c2             	inc    %rdx
  206579:	48 39 d6             	cmp    %rdx,%rsi
  20657c:	75 f2                	jne    206570 <_ZN68_$LT$core..fmt..builders..PadAdapter$u20$as$u20$core..fmt..Write$GT$9write_str17h8c71a56a95677c47E+0x1c0>
  20657e:	eb 30                	jmp    2065b0 <_ZN68_$LT$core..fmt..builders..PadAdapter$u20$as$u20$core..fmt..Write$GT$9write_str17h8c71a56a95677c47E+0x200>
  206580:	48 01 d7             	add    %rdx,%rdi
  206583:	48 89 fa             	mov    %rdi,%rdx
  206586:	4a 8d 0c 22          	lea    (%rdx,%r12,1),%rcx
  20658a:	4e 8d 64 22 01       	lea    0x1(%rdx,%r12,1),%r12
  20658f:	4c 39 e9             	cmp    %r13,%rcx
  206592:	0f 83 b8 fe ff ff    	jae    206450 <_ZN68_$LT$core..fmt..builders..PadAdapter$u20$as$u20$core..fmt..Write$GT$9write_str17h8c71a56a95677c47E+0xa0>
  206598:	80 7c 0d 00 0a       	cmpb   $0xa,0x0(%rbp,%rcx,1)
  20659d:	0f 85 ad fe ff ff    	jne    206450 <_ZN68_$LT$core..fmt..builders..PadAdapter$u20$as$u20$core..fmt..Write$GT$9write_str17h8c71a56a95677c47E+0xa0>
  2065a3:	b0 01                	mov    $0x1,%al
  2065a5:	e9 0b 00 00 00       	jmpq   2065b5 <_ZN68_$LT$core..fmt..builders..PadAdapter$u20$as$u20$core..fmt..Write$GT$9write_str17h8c71a56a95677c47E+0x205>
  2065aa:	66 0f 1f 44 00 00    	nopw   0x0(%rax,%rax,1)
  2065b0:	31 c0                	xor    %eax,%eax
  2065b2:	4d 89 ec             	mov    %r13,%r12
  2065b5:	48 8b 14 24          	mov    (%rsp),%rdx
  2065b9:	48 8b 4a 10          	mov    0x10(%rdx),%rcx
  2065bd:	88 01                	mov    %al,(%rcx)
  2065bf:	48 8b 3a             	mov    (%rdx),%rdi
  2065c2:	48 8b 4a 08          	mov    0x8(%rdx),%rcx
  2065c6:	4d 85 e4             	test   %r12,%r12
  2065c9:	0f 84 21 fe ff ff    	je     2063f0 <_ZN68_$LT$core..fmt..builders..PadAdapter$u20$as$u20$core..fmt..Write$GT$9write_str17h8c71a56a95677c47E+0x40>
  2065cf:	4d 39 e5             	cmp    %r12,%r13
  2065d2:	0f 84 18 fe ff ff    	je     2063f0 <_ZN68_$LT$core..fmt..builders..PadAdapter$u20$as$u20$core..fmt..Write$GT$9write_str17h8c71a56a95677c47E+0x40>
  2065d8:	76 5b                	jbe    206635 <_ZN68_$LT$core..fmt..builders..PadAdapter$u20$as$u20$core..fmt..Write$GT$9write_str17h8c71a56a95677c47E+0x285>
  2065da:	42 80 7c 25 00 bf    	cmpb   $0xbf,0x0(%rbp,%r12,1)
  2065e0:	7e 53                	jle    206635 <_ZN68_$LT$core..fmt..builders..PadAdapter$u20$as$u20$core..fmt..Write$GT$9write_str17h8c71a56a95677c47E+0x285>
  2065e2:	48 89 ee             	mov    %rbp,%rsi
  2065e5:	4c 89 e2             	mov    %r12,%rdx
  2065e8:	ff 51 18             	callq  *0x18(%rcx)
  2065eb:	84 c0                	test   %al,%al
  2065ed:	75 29                	jne    206618 <_ZN68_$LT$core..fmt..builders..PadAdapter$u20$as$u20$core..fmt..Write$GT$9write_str17h8c71a56a95677c47E+0x268>
  2065ef:	42 80 7c 25 00 bf    	cmpb   $0xbf,0x0(%rbp,%r12,1)
  2065f5:	0f 8f 06 fe ff ff    	jg     206401 <_ZN68_$LT$core..fmt..builders..PadAdapter$u20$as$u20$core..fmt..Write$GT$9write_str17h8c71a56a95677c47E+0x51>
  2065fb:	41 b8 80 16 20 00    	mov    $0x201680,%r8d
  206601:	48 89 ef             	mov    %rbp,%rdi
  206604:	4c 89 ee             	mov    %r13,%rsi
  206607:	4c 89 e2             	mov    %r12,%rdx
  20660a:	4c 89 e9             	mov    %r13,%rcx
  20660d:	e8 5e e8 ff ff       	callq  204e70 <_ZN4core3str16slice_error_fail17h5a2cb913f36fc572E>
  206612:	0f 0b                	ud2    
  206614:	31 c0                	xor    %eax,%eax
  206616:	eb 02                	jmp    20661a <_ZN68_$LT$core..fmt..builders..PadAdapter$u20$as$u20$core..fmt..Write$GT$9write_str17h8c71a56a95677c47E+0x26a>
  206618:	b0 01                	mov    $0x1,%al
  20661a:	48 83 c4 08          	add    $0x8,%rsp
  20661e:	5b                   	pop    %rbx
  20661f:	41 5c                	pop    %r12
  206621:	41 5d                	pop    %r13
  206623:	41 5e                	pop    %r14
  206625:	41 5f                	pop    %r15
  206627:	5d                   	pop    %rbp
  206628:	c3                   	retq   
  206629:	ba 28 08 20 00       	mov    $0x200828,%edx
  20662e:	e8 5d e2 ff ff       	callq  204890 <_ZN4core5slice5index26slice_start_index_len_fail17he140cef4d69855b6E>
  206633:	0f 0b                	ud2    
  206635:	41 b8 68 16 20 00    	mov    $0x201668,%r8d
  20663b:	48 89 ef             	mov    %rbp,%rdi
  20663e:	4c 89 ee             	mov    %r13,%rsi
  206641:	31 d2                	xor    %edx,%edx
  206643:	4c 89 e1             	mov    %r12,%rcx
  206646:	e8 25 e8 ff ff       	callq  204e70 <_ZN4core3str16slice_error_fail17h5a2cb913f36fc572E>
  20664b:	0f 0b                	ud2    
  20664d:	cc                   	int3   
  20664e:	cc                   	int3   
  20664f:	cc                   	int3   

0000000000206650 <_ZN4core3fmt8builders10DebugTuple5field17h33be4a67b9d94913E>:
  206650:	55                   	push   %rbp
  206651:	41 57                	push   %r15
  206653:	41 56                	push   %r14
  206655:	53                   	push   %rbx
  206656:	48 83 ec 68          	sub    $0x68,%rsp
  20665a:	48 89 fb             	mov    %rdi,%rbx
  20665d:	40 b5 01             	mov    $0x1,%bpl
  206660:	80 7f 10 00          	cmpb   $0x0,0x10(%rdi)
  206664:	0f 85 11 01 00 00    	jne    20677b <_ZN4core3fmt8builders10DebugTuple5field17h33be4a67b9d94913E+0x12b>
  20666a:	49 89 d6             	mov    %rdx,%r14
  20666d:	49 89 f7             	mov    %rsi,%r15
  206670:	48 8b 03             	mov    (%rbx),%rax
  206673:	48 8b 53 08          	mov    0x8(%rbx),%rdx
  206677:	8b 48 30             	mov    0x30(%rax),%ecx
  20667a:	f6 c1 04             	test   $0x4,%cl
  20667d:	75 40                	jne    2066bf <_ZN4core3fmt8builders10DebugTuple5field17h33be4a67b9d94913E+0x6f>
  20667f:	31 c9                	xor    %ecx,%ecx
  206681:	48 85 d2             	test   %rdx,%rdx
  206684:	0f 94 c1             	sete   %cl
  206687:	ba 9e 16 20 00       	mov    $0x20169e,%edx
  20668c:	be 9a 16 20 00       	mov    $0x20169a,%esi
  206691:	48 0f 44 f2          	cmove  %rdx,%rsi
  206695:	ba 02 00 00 00       	mov    $0x2,%edx
  20669a:	48 29 ca             	sub    %rcx,%rdx
  20669d:	48 8b 78 20          	mov    0x20(%rax),%rdi
  2066a1:	48 8b 40 28          	mov    0x28(%rax),%rax
  2066a5:	ff 50 18             	callq  *0x18(%rax)
  2066a8:	84 c0                	test   %al,%al
  2066aa:	0f 85 cb 00 00 00    	jne    20677b <_ZN4core3fmt8builders10DebugTuple5field17h33be4a67b9d94913E+0x12b>
  2066b0:	48 8b 33             	mov    (%rbx),%rsi
  2066b3:	4c 89 ff             	mov    %r15,%rdi
  2066b6:	41 ff 56 18          	callq  *0x18(%r14)
  2066ba:	e9 ba 00 00 00       	jmpq   206779 <_ZN4core3fmt8builders10DebugTuple5field17h33be4a67b9d94913E+0x129>
  2066bf:	48 85 d2             	test   %rdx,%rdx
  2066c2:	75 23                	jne    2066e7 <_ZN4core3fmt8builders10DebugTuple5field17h33be4a67b9d94913E+0x97>
  2066c4:	48 8b 78 20          	mov    0x20(%rax),%rdi
  2066c8:	48 8b 40 28          	mov    0x28(%rax),%rax
  2066cc:	be 9c 16 20 00       	mov    $0x20169c,%esi
  2066d1:	ba 02 00 00 00       	mov    $0x2,%edx
  2066d6:	ff 50 18             	callq  *0x18(%rax)
  2066d9:	84 c0                	test   %al,%al
  2066db:	0f 85 9a 00 00 00    	jne    20677b <_ZN4core3fmt8builders10DebugTuple5field17h33be4a67b9d94913E+0x12b>
  2066e1:	48 8b 03             	mov    (%rbx),%rax
  2066e4:	8b 48 30             	mov    0x30(%rax),%ecx
  2066e7:	c6 44 24 0c 01       	movb   $0x1,0xc(%rsp)
  2066ec:	48 8b 50 20          	mov    0x20(%rax),%rdx
  2066f0:	48 8b 70 28          	mov    0x28(%rax),%rsi
  2066f4:	48 89 54 24 50       	mov    %rdx,0x50(%rsp)
  2066f9:	48 89 74 24 58       	mov    %rsi,0x58(%rsp)
  2066fe:	48 8d 54 24 0c       	lea    0xc(%rsp),%rdx
  206703:	48 89 54 24 60       	mov    %rdx,0x60(%rsp)
  206708:	8b 50 34             	mov    0x34(%rax),%edx
  20670b:	40 8a 70 38          	mov    0x38(%rax),%sil
  20670f:	48 8b 38             	mov    (%rax),%rdi
  206712:	4c 8b 40 08          	mov    0x8(%rax),%r8
  206716:	4c 8b 48 10          	mov    0x10(%rax),%r9
  20671a:	48 8b 40 18          	mov    0x18(%rax),%rax
  20671e:	89 4c 24 40          	mov    %ecx,0x40(%rsp)
  206722:	89 54 24 44          	mov    %edx,0x44(%rsp)
  206726:	40 88 74 24 48       	mov    %sil,0x48(%rsp)
  20672b:	48 89 7c 24 10       	mov    %rdi,0x10(%rsp)
  206730:	4c 89 44 24 18       	mov    %r8,0x18(%rsp)
  206735:	4c 89 4c 24 20       	mov    %r9,0x20(%rsp)
  20673a:	48 89 44 24 28       	mov    %rax,0x28(%rsp)
  20673f:	48 8d 44 24 50       	lea    0x50(%rsp),%rax
  206744:	48 89 44 24 30       	mov    %rax,0x30(%rsp)
  206749:	48 c7 44 24 38 b8 15 	movq   $0x2015b8,0x38(%rsp)
  206750:	20 00 
  206752:	48 8d 74 24 10       	lea    0x10(%rsp),%rsi
  206757:	4c 89 ff             	mov    %r15,%rdi
  20675a:	41 ff 56 18          	callq  *0x18(%r14)
  20675e:	84 c0                	test   %al,%al
  206760:	75 19                	jne    20677b <_ZN4core3fmt8builders10DebugTuple5field17h33be4a67b9d94913E+0x12b>
  206762:	48 8b 7c 24 30       	mov    0x30(%rsp),%rdi
  206767:	48 8b 44 24 38       	mov    0x38(%rsp),%rax
  20676c:	be 98 16 20 00       	mov    $0x201698,%esi
  206771:	ba 02 00 00 00       	mov    $0x2,%edx
  206776:	ff 50 18             	callq  *0x18(%rax)
  206779:	89 c5                	mov    %eax,%ebp
  20677b:	40 88 6b 10          	mov    %bpl,0x10(%rbx)
  20677f:	48 ff 43 08          	incq   0x8(%rbx)
  206783:	48 89 d8             	mov    %rbx,%rax
  206786:	48 83 c4 68          	add    $0x68,%rsp
  20678a:	5b                   	pop    %rbx
  20678b:	41 5e                	pop    %r14
  20678d:	41 5f                	pop    %r15
  20678f:	5d                   	pop    %rbp
  206790:	c3                   	retq   
  206791:	cc                   	int3   
  206792:	cc                   	int3   
  206793:	cc                   	int3   
  206794:	cc                   	int3   
  206795:	cc                   	int3   
  206796:	cc                   	int3   
  206797:	cc                   	int3   
  206798:	cc                   	int3   
  206799:	cc                   	int3   
  20679a:	cc                   	int3   
  20679b:	cc                   	int3   
  20679c:	cc                   	int3   
  20679d:	cc                   	int3   
  20679e:	cc                   	int3   
  20679f:	cc                   	int3   

00000000002067a0 <_ZN4core3fmt8builders10DebugTuple6finish17hc943df4b07b6e466E>:
  2067a0:	55                   	push   %rbp
  2067a1:	53                   	push   %rbx
  2067a2:	50                   	push   %rax
  2067a3:	48 8b 4f 08          	mov    0x8(%rdi),%rcx
  2067a7:	48 85 c9             	test   %rcx,%rcx
  2067aa:	8a 47 10             	mov    0x10(%rdi),%al
  2067ad:	74 58                	je     206807 <_ZN4core3fmt8builders10DebugTuple6finish17hc943df4b07b6e466E+0x67>
  2067af:	48 89 fb             	mov    %rdi,%rbx
  2067b2:	40 b5 01             	mov    $0x1,%bpl
  2067b5:	84 c0                	test   %al,%al
  2067b7:	75 48                	jne    206801 <_ZN4core3fmt8builders10DebugTuple6finish17hc943df4b07b6e466E+0x61>
  2067b9:	48 83 f9 01          	cmp    $0x1,%rcx
  2067bd:	75 28                	jne    2067e7 <_ZN4core3fmt8builders10DebugTuple6finish17hc943df4b07b6e466E+0x47>
  2067bf:	80 7b 11 00          	cmpb   $0x0,0x11(%rbx)
  2067c3:	74 22                	je     2067e7 <_ZN4core3fmt8builders10DebugTuple6finish17hc943df4b07b6e466E+0x47>
  2067c5:	48 8b 03             	mov    (%rbx),%rax
  2067c8:	f6 40 30 04          	testb  $0x4,0x30(%rax)
  2067cc:	75 19                	jne    2067e7 <_ZN4core3fmt8builders10DebugTuple6finish17hc943df4b07b6e466E+0x47>
  2067ce:	48 8b 78 20          	mov    0x20(%rax),%rdi
  2067d2:	48 8b 40 28          	mov    0x28(%rax),%rax
  2067d6:	be 9f 16 20 00       	mov    $0x20169f,%esi
  2067db:	ba 01 00 00 00       	mov    $0x1,%edx
  2067e0:	ff 50 18             	callq  *0x18(%rax)
  2067e3:	84 c0                	test   %al,%al
  2067e5:	75 1a                	jne    206801 <_ZN4core3fmt8builders10DebugTuple6finish17hc943df4b07b6e466E+0x61>
  2067e7:	48 8b 03             	mov    (%rbx),%rax
  2067ea:	48 8b 78 20          	mov    0x20(%rax),%rdi
  2067ee:	48 8b 40 28          	mov    0x28(%rax),%rax
  2067f2:	be a0 16 20 00       	mov    $0x2016a0,%esi
  2067f7:	ba 01 00 00 00       	mov    $0x1,%edx
  2067fc:	ff 50 18             	callq  *0x18(%rax)
  2067ff:	89 c5                	mov    %eax,%ebp
  206801:	40 88 6b 10          	mov    %bpl,0x10(%rbx)
  206805:	89 e8                	mov    %ebp,%eax
  206807:	48 83 c4 08          	add    $0x8,%rsp
  20680b:	5b                   	pop    %rbx
  20680c:	5d                   	pop    %rbp
  20680d:	c3                   	retq   
  20680e:	cc                   	int3   
  20680f:	cc                   	int3   

0000000000206810 <_ZN4core3fmt5Write10write_char17hc3c314e0120dae16E>:
  206810:	50                   	push   %rax
  206811:	c7 44 24 04 00 00 00 	movl   $0x0,0x4(%rsp)
  206818:	00 
  206819:	81 fe 80 00 00 00    	cmp    $0x80,%esi
  20681f:	73 16                	jae    206837 <_ZN4core3fmt5Write10write_char17hc3c314e0120dae16E+0x27>
  206821:	40 88 74 24 04       	mov    %sil,0x4(%rsp)
  206826:	ba 01 00 00 00       	mov    $0x1,%edx
  20682b:	48 8d 74 24 04       	lea    0x4(%rsp),%rsi
  206830:	e8 7b fb ff ff       	callq  2063b0 <_ZN68_$LT$core..fmt..builders..PadAdapter$u20$as$u20$core..fmt..Write$GT$9write_str17h8c71a56a95677c47E>
  206835:	59                   	pop    %rcx
  206836:	c3                   	retq   
  206837:	89 f0                	mov    %esi,%eax
  206839:	81 fe 00 08 00 00    	cmp    $0x800,%esi
  20683f:	73 27                	jae    206868 <_ZN4core3fmt5Write10write_char17hc3c314e0120dae16E+0x58>
  206841:	c1 e8 06             	shr    $0x6,%eax
  206844:	0c c0                	or     $0xc0,%al
  206846:	88 44 24 04          	mov    %al,0x4(%rsp)
  20684a:	40 80 e6 3f          	and    $0x3f,%sil
  20684e:	40 80 ce 80          	or     $0x80,%sil
  206852:	40 88 74 24 05       	mov    %sil,0x5(%rsp)
  206857:	ba 02 00 00 00       	mov    $0x2,%edx
  20685c:	48 8d 74 24 04       	lea    0x4(%rsp),%rsi
  206861:	e8 4a fb ff ff       	callq  2063b0 <_ZN68_$LT$core..fmt..builders..PadAdapter$u20$as$u20$core..fmt..Write$GT$9write_str17h8c71a56a95677c47E>
  206866:	59                   	pop    %rcx
  206867:	c3                   	retq   
  206868:	81 fe 00 00 01 00    	cmp    $0x10000,%esi
  20686e:	73 34                	jae    2068a4 <_ZN4core3fmt5Write10write_char17hc3c314e0120dae16E+0x94>
  206870:	c1 e8 0c             	shr    $0xc,%eax
  206873:	0c e0                	or     $0xe0,%al
  206875:	88 44 24 04          	mov    %al,0x4(%rsp)
  206879:	89 f0                	mov    %esi,%eax
  20687b:	c1 e8 06             	shr    $0x6,%eax
  20687e:	24 3f                	and    $0x3f,%al
  206880:	0c 80                	or     $0x80,%al
  206882:	88 44 24 05          	mov    %al,0x5(%rsp)
  206886:	40 80 e6 3f          	and    $0x3f,%sil
  20688a:	40 80 ce 80          	or     $0x80,%sil
  20688e:	40 88 74 24 06       	mov    %sil,0x6(%rsp)
  206893:	ba 03 00 00 00       	mov    $0x3,%edx
  206898:	48 8d 74 24 04       	lea    0x4(%rsp),%rsi
  20689d:	e8 0e fb ff ff       	callq  2063b0 <_ZN68_$LT$core..fmt..builders..PadAdapter$u20$as$u20$core..fmt..Write$GT$9write_str17h8c71a56a95677c47E>
  2068a2:	59                   	pop    %rcx
  2068a3:	c3                   	retq   
  2068a4:	c1 e8 12             	shr    $0x12,%eax
  2068a7:	0c f0                	or     $0xf0,%al
  2068a9:	88 44 24 04          	mov    %al,0x4(%rsp)
  2068ad:	89 f0                	mov    %esi,%eax
  2068af:	c1 e8 0c             	shr    $0xc,%eax
  2068b2:	24 3f                	and    $0x3f,%al
  2068b4:	0c 80                	or     $0x80,%al
  2068b6:	88 44 24 05          	mov    %al,0x5(%rsp)
  2068ba:	89 f0                	mov    %esi,%eax
  2068bc:	c1 e8 06             	shr    $0x6,%eax
  2068bf:	24 3f                	and    $0x3f,%al
  2068c1:	0c 80                	or     $0x80,%al
  2068c3:	88 44 24 06          	mov    %al,0x6(%rsp)
  2068c7:	40 80 e6 3f          	and    $0x3f,%sil
  2068cb:	40 80 ce 80          	or     $0x80,%sil
  2068cf:	40 88 74 24 07       	mov    %sil,0x7(%rsp)
  2068d4:	ba 04 00 00 00       	mov    $0x4,%edx
  2068d9:	48 8d 74 24 04       	lea    0x4(%rsp),%rsi
  2068de:	e8 cd fa ff ff       	callq  2063b0 <_ZN68_$LT$core..fmt..builders..PadAdapter$u20$as$u20$core..fmt..Write$GT$9write_str17h8c71a56a95677c47E>
  2068e3:	59                   	pop    %rcx
  2068e4:	c3                   	retq   
  2068e5:	cc                   	int3   
  2068e6:	cc                   	int3   
  2068e7:	cc                   	int3   
  2068e8:	cc                   	int3   
  2068e9:	cc                   	int3   
  2068ea:	cc                   	int3   
  2068eb:	cc                   	int3   
  2068ec:	cc                   	int3   
  2068ed:	cc                   	int3   
  2068ee:	cc                   	int3   
  2068ef:	cc                   	int3   

00000000002068f0 <_ZN4core3fmt5Write9write_fmt17h0d80c161c062dbfaE>:
  2068f0:	48 83 ec 38          	sub    $0x38,%rsp
  2068f4:	48 89 3c 24          	mov    %rdi,(%rsp)
  2068f8:	48 8b 46 28          	mov    0x28(%rsi),%rax
  2068fc:	48 89 44 24 30       	mov    %rax,0x30(%rsp)
  206901:	48 8b 46 20          	mov    0x20(%rsi),%rax
  206905:	48 89 44 24 28       	mov    %rax,0x28(%rsp)
  20690a:	48 8b 46 18          	mov    0x18(%rsi),%rax
  20690e:	48 89 44 24 20       	mov    %rax,0x20(%rsp)
  206913:	48 8b 46 10          	mov    0x10(%rsi),%rax
  206917:	48 89 44 24 18       	mov    %rax,0x18(%rsp)
  20691c:	48 8b 06             	mov    (%rsi),%rax
  20691f:	48 8b 4e 08          	mov    0x8(%rsi),%rcx
  206923:	48 89 4c 24 10       	mov    %rcx,0x10(%rsp)
  206928:	48 89 44 24 08       	mov    %rax,0x8(%rsp)
  20692d:	48 89 e7             	mov    %rsp,%rdi
  206930:	48 8d 54 24 08       	lea    0x8(%rsp),%rdx
  206935:	be a8 16 20 00       	mov    $0x2016a8,%esi
  20693a:	e8 21 ee ff ff       	callq  205760 <_ZN4core3fmt5write17h9e810da9ad2d3eaaE>
  20693f:	48 83 c4 38          	add    $0x38,%rsp
  206943:	c3                   	retq   
  206944:	cc                   	int3   
  206945:	cc                   	int3   
  206946:	cc                   	int3   
  206947:	cc                   	int3   
  206948:	cc                   	int3   
  206949:	cc                   	int3   
  20694a:	cc                   	int3   
  20694b:	cc                   	int3   
  20694c:	cc                   	int3   
  20694d:	cc                   	int3   
  20694e:	cc                   	int3   
  20694f:	cc                   	int3   

0000000000206950 <_ZN50_$LT$$RF$mut$u20$W$u20$as$u20$core..fmt..Write$GT$9write_str17hdafddd57fa2af05cE>:
  206950:	48 8b 3f             	mov    (%rdi),%rdi
  206953:	e9 58 fa ff ff       	jmpq   2063b0 <_ZN68_$LT$core..fmt..builders..PadAdapter$u20$as$u20$core..fmt..Write$GT$9write_str17h8c71a56a95677c47E>
  206958:	cc                   	int3   
  206959:	cc                   	int3   
  20695a:	cc                   	int3   
  20695b:	cc                   	int3   
  20695c:	cc                   	int3   
  20695d:	cc                   	int3   
  20695e:	cc                   	int3   
  20695f:	cc                   	int3   

0000000000206960 <_ZN50_$LT$$RF$mut$u20$W$u20$as$u20$core..fmt..Write$GT$10write_char17ha970260db3d0dd33E>:
  206960:	50                   	push   %rax
  206961:	48 8b 3f             	mov    (%rdi),%rdi
  206964:	c7 44 24 04 00 00 00 	movl   $0x0,0x4(%rsp)
  20696b:	00 
  20696c:	81 fe 80 00 00 00    	cmp    $0x80,%esi
  206972:	73 16                	jae    20698a <_ZN50_$LT$$RF$mut$u20$W$u20$as$u20$core..fmt..Write$GT$10write_char17ha970260db3d0dd33E+0x2a>
  206974:	40 88 74 24 04       	mov    %sil,0x4(%rsp)
  206979:	ba 01 00 00 00       	mov    $0x1,%edx
  20697e:	48 8d 74 24 04       	lea    0x4(%rsp),%rsi
  206983:	e8 28 fa ff ff       	callq  2063b0 <_ZN68_$LT$core..fmt..builders..PadAdapter$u20$as$u20$core..fmt..Write$GT$9write_str17h8c71a56a95677c47E>
  206988:	59                   	pop    %rcx
  206989:	c3                   	retq   
  20698a:	89 f0                	mov    %esi,%eax
  20698c:	81 fe 00 08 00 00    	cmp    $0x800,%esi
  206992:	73 27                	jae    2069bb <_ZN50_$LT$$RF$mut$u20$W$u20$as$u20$core..fmt..Write$GT$10write_char17ha970260db3d0dd33E+0x5b>
  206994:	c1 e8 06             	shr    $0x6,%eax
  206997:	0c c0                	or     $0xc0,%al
  206999:	88 44 24 04          	mov    %al,0x4(%rsp)
  20699d:	40 80 e6 3f          	and    $0x3f,%sil
  2069a1:	40 80 ce 80          	or     $0x80,%sil
  2069a5:	40 88 74 24 05       	mov    %sil,0x5(%rsp)
  2069aa:	ba 02 00 00 00       	mov    $0x2,%edx
  2069af:	48 8d 74 24 04       	lea    0x4(%rsp),%rsi
  2069b4:	e8 f7 f9 ff ff       	callq  2063b0 <_ZN68_$LT$core..fmt..builders..PadAdapter$u20$as$u20$core..fmt..Write$GT$9write_str17h8c71a56a95677c47E>
  2069b9:	59                   	pop    %rcx
  2069ba:	c3                   	retq   
  2069bb:	81 fe 00 00 01 00    	cmp    $0x10000,%esi
  2069c1:	73 34                	jae    2069f7 <_ZN50_$LT$$RF$mut$u20$W$u20$as$u20$core..fmt..Write$GT$10write_char17ha970260db3d0dd33E+0x97>
  2069c3:	c1 e8 0c             	shr    $0xc,%eax
  2069c6:	0c e0                	or     $0xe0,%al
  2069c8:	88 44 24 04          	mov    %al,0x4(%rsp)
  2069cc:	89 f0                	mov    %esi,%eax
  2069ce:	c1 e8 06             	shr    $0x6,%eax
  2069d1:	24 3f                	and    $0x3f,%al
  2069d3:	0c 80                	or     $0x80,%al
  2069d5:	88 44 24 05          	mov    %al,0x5(%rsp)
  2069d9:	40 80 e6 3f          	and    $0x3f,%sil
  2069dd:	40 80 ce 80          	or     $0x80,%sil
  2069e1:	40 88 74 24 06       	mov    %sil,0x6(%rsp)
  2069e6:	ba 03 00 00 00       	mov    $0x3,%edx
  2069eb:	48 8d 74 24 04       	lea    0x4(%rsp),%rsi
  2069f0:	e8 bb f9 ff ff       	callq  2063b0 <_ZN68_$LT$core..fmt..builders..PadAdapter$u20$as$u20$core..fmt..Write$GT$9write_str17h8c71a56a95677c47E>
  2069f5:	59                   	pop    %rcx
  2069f6:	c3                   	retq   
  2069f7:	c1 e8 12             	shr    $0x12,%eax
  2069fa:	0c f0                	or     $0xf0,%al
  2069fc:	88 44 24 04          	mov    %al,0x4(%rsp)
  206a00:	89 f0                	mov    %esi,%eax
  206a02:	c1 e8 0c             	shr    $0xc,%eax
  206a05:	24 3f                	and    $0x3f,%al
  206a07:	0c 80                	or     $0x80,%al
  206a09:	88 44 24 05          	mov    %al,0x5(%rsp)
  206a0d:	89 f0                	mov    %esi,%eax
  206a0f:	c1 e8 06             	shr    $0x6,%eax
  206a12:	24 3f                	and    $0x3f,%al
  206a14:	0c 80                	or     $0x80,%al
  206a16:	88 44 24 06          	mov    %al,0x6(%rsp)
  206a1a:	40 80 e6 3f          	and    $0x3f,%sil
  206a1e:	40 80 ce 80          	or     $0x80,%sil
  206a22:	40 88 74 24 07       	mov    %sil,0x7(%rsp)
  206a27:	ba 04 00 00 00       	mov    $0x4,%edx
  206a2c:	48 8d 74 24 04       	lea    0x4(%rsp),%rsi
  206a31:	e8 7a f9 ff ff       	callq  2063b0 <_ZN68_$LT$core..fmt..builders..PadAdapter$u20$as$u20$core..fmt..Write$GT$9write_str17h8c71a56a95677c47E>
  206a36:	59                   	pop    %rcx
  206a37:	c3                   	retq   
  206a38:	cc                   	int3   
  206a39:	cc                   	int3   
  206a3a:	cc                   	int3   
  206a3b:	cc                   	int3   
  206a3c:	cc                   	int3   
  206a3d:	cc                   	int3   
  206a3e:	cc                   	int3   
  206a3f:	cc                   	int3   

0000000000206a40 <_ZN50_$LT$$RF$mut$u20$W$u20$as$u20$core..fmt..Write$GT$9write_fmt17hf6e0c15c0a4758a5E>:
  206a40:	48 83 ec 38          	sub    $0x38,%rsp
  206a44:	48 8b 07             	mov    (%rdi),%rax
  206a47:	48 89 04 24          	mov    %rax,(%rsp)
  206a4b:	48 8b 46 28          	mov    0x28(%rsi),%rax
  206a4f:	48 89 44 24 30       	mov    %rax,0x30(%rsp)
  206a54:	48 8b 46 20          	mov    0x20(%rsi),%rax
  206a58:	48 89 44 24 28       	mov    %rax,0x28(%rsp)
  206a5d:	48 8b 46 18          	mov    0x18(%rsi),%rax
  206a61:	48 89 44 24 20       	mov    %rax,0x20(%rsp)
  206a66:	48 8b 46 10          	mov    0x10(%rsi),%rax
  206a6a:	48 89 44 24 18       	mov    %rax,0x18(%rsp)
  206a6f:	48 8b 06             	mov    (%rsi),%rax
  206a72:	48 8b 4e 08          	mov    0x8(%rsi),%rcx
  206a76:	48 89 4c 24 10       	mov    %rcx,0x10(%rsp)
  206a7b:	48 89 44 24 08       	mov    %rax,0x8(%rsp)
  206a80:	48 89 e7             	mov    %rsp,%rdi
  206a83:	48 8d 54 24 08       	lea    0x8(%rsp),%rdx
  206a88:	be a8 16 20 00       	mov    $0x2016a8,%esi
  206a8d:	e8 ce ec ff ff       	callq  205760 <_ZN4core3fmt5write17h9e810da9ad2d3eaaE>
  206a92:	48 83 c4 38          	add    $0x38,%rsp
  206a96:	c3                   	retq   
  206a97:	cc                   	int3   
  206a98:	cc                   	int3   
  206a99:	cc                   	int3   
  206a9a:	cc                   	int3   
  206a9b:	cc                   	int3   
  206a9c:	cc                   	int3   
  206a9d:	cc                   	int3   
  206a9e:	cc                   	int3   
  206a9f:	cc                   	int3   

0000000000206aa0 <memcpy>:
  206aa0:	48 89 f8             	mov    %rdi,%rax
  206aa3:	48 85 d2             	test   %rdx,%rdx
  206aa6:	0f 84 13 00 00 00    	je     206abf <memcpy+0x1f>
  206aac:	31 ff                	xor    %edi,%edi
  206aae:	66 90                	xchg   %ax,%ax
  206ab0:	0f b6 0c 3e          	movzbl (%rsi,%rdi,1),%ecx
  206ab4:	88 0c 38             	mov    %cl,(%rax,%rdi,1)
  206ab7:	48 ff c7             	inc    %rdi
  206aba:	48 39 fa             	cmp    %rdi,%rdx
  206abd:	75 f1                	jne    206ab0 <memcpy+0x10>
  206abf:	c3                   	retq   
